ARM GAS  /var/folders/ww/rl_brt8s5pq2m4_0c4ltm8d00000gn/T//ccdrk6Ya.s 			page 1


   1              		.cpu cortex-m0
   2              		.eabi_attribute 20, 1
   3              		.eabi_attribute 21, 1
   4              		.eabi_attribute 23, 3
   5              		.eabi_attribute 24, 1
   6              		.eabi_attribute 25, 1
   7              		.eabi_attribute 26, 1
   8              		.eabi_attribute 30, 1
   9              		.eabi_attribute 34, 0
  10              		.eabi_attribute 18, 4
  11              		.file	"hk32f0xx_it.c"
  12              		.text
  13              	.Ltext0:
  14              		.cfi_sections	.debug_frame
  15              		.section	.text.NMI_Handler,"ax",%progbits
  16              		.align	1
  17              		.global	NMI_Handler
  18              		.arch armv6s-m
  19              		.syntax unified
  20              		.code	16
  21              		.thumb_func
  22              		.fpu softvfp
  24              	NMI_Handler:
  25              	.LFB33:
  26              		.file 1 "Src/hk32f0xx_it.c"
   1:Src/hk32f0xx_it.c **** /**
   2:Src/hk32f0xx_it.c ****   ******************************************************************************
   3:Src/hk32f0xx_it.c ****   * @file    hk32f0xx_it.c  
   4:Src/hk32f0xx_it.c ****   ****************************************************************************** 
   5:Src/hk32f0xx_it.c ****   */
   6:Src/hk32f0xx_it.c **** 
   7:Src/hk32f0xx_it.c **** /* Includes ------------------------------------------------------------------*/
   8:Src/hk32f0xx_it.c **** #include "hk32f0xx_it.h"
   9:Src/hk32f0xx_it.c **** 
  10:Src/hk32f0xx_it.c **** /** @addtogroup HK32F0xx_StdPeriph_Examples
  11:Src/hk32f0xx_it.c ****   * @{
  12:Src/hk32f0xx_it.c ****   */
  13:Src/hk32f0xx_it.c **** 
  14:Src/hk32f0xx_it.c **** /** @addtogroup ADC_BasicExample
  15:Src/hk32f0xx_it.c ****   * @{
  16:Src/hk32f0xx_it.c ****   */
  17:Src/hk32f0xx_it.c **** 
  18:Src/hk32f0xx_it.c **** /* Private typedef -----------------------------------------------------------*/
  19:Src/hk32f0xx_it.c **** /* Private define ------------------------------------------------------------*/
  20:Src/hk32f0xx_it.c **** /* Private macro -------------------------------------------------------------*/
  21:Src/hk32f0xx_it.c **** /* Private variables ---------------------------------------------------------*/
  22:Src/hk32f0xx_it.c **** /* Private function prototypes -----------------------------------------------*/
  23:Src/hk32f0xx_it.c **** /* Private functions ---------------------------------------------------------*/
  24:Src/hk32f0xx_it.c **** 
  25:Src/hk32f0xx_it.c **** /******************************************************************************/
  26:Src/hk32f0xx_it.c **** /*            Cortex-M0 Processor Exceptions Handlers                         */
  27:Src/hk32f0xx_it.c **** /******************************************************************************/
  28:Src/hk32f0xx_it.c **** 
  29:Src/hk32f0xx_it.c **** /**
  30:Src/hk32f0xx_it.c ****   * @brief  This function handles NMI exception.
  31:Src/hk32f0xx_it.c ****   * @param  None
  32:Src/hk32f0xx_it.c ****   * @retval None
ARM GAS  /var/folders/ww/rl_brt8s5pq2m4_0c4ltm8d00000gn/T//ccdrk6Ya.s 			page 2


  33:Src/hk32f0xx_it.c ****   */
  34:Src/hk32f0xx_it.c **** void NMI_Handler(void)
  35:Src/hk32f0xx_it.c **** {
  27              		.loc 1 35 1 view -0
  28              		.cfi_startproc
  29              		@ args = 0, pretend = 0, frame = 0
  30              		@ frame_needed = 0, uses_anonymous_args = 0
  31              		@ link register save eliminated.
  36:Src/hk32f0xx_it.c **** }
  32              		.loc 1 36 1 view .LVU1
  33              		@ sp needed
  34 0000 7047     		bx	lr
  35              		.cfi_endproc
  36              	.LFE33:
  38              		.section	.text.HardFault_Handler,"ax",%progbits
  39              		.align	1
  40              		.global	HardFault_Handler
  41              		.syntax unified
  42              		.code	16
  43              		.thumb_func
  44              		.fpu softvfp
  46              	HardFault_Handler:
  47              	.LFB34:
  37:Src/hk32f0xx_it.c **** 
  38:Src/hk32f0xx_it.c **** /**
  39:Src/hk32f0xx_it.c ****   * @brief  This function handles Hard Fault exception.
  40:Src/hk32f0xx_it.c ****   * @param  None
  41:Src/hk32f0xx_it.c ****   * @retval None
  42:Src/hk32f0xx_it.c ****   */
  43:Src/hk32f0xx_it.c **** void HardFault_Handler(void)
  44:Src/hk32f0xx_it.c **** {
  48              		.loc 1 44 1 view -0
  49              		.cfi_startproc
  50              		@ Volatile: function does not return.
  51              		@ args = 0, pretend = 0, frame = 0
  52              		@ frame_needed = 0, uses_anonymous_args = 0
  53              		@ link register save eliminated.
  54              	.L3:
  45:Src/hk32f0xx_it.c ****   /* Go to infinite loop when Hard Fault exception occurs */
  46:Src/hk32f0xx_it.c ****   while (1)
  55              		.loc 1 46 3 discriminator 1 view .LVU3
  47:Src/hk32f0xx_it.c ****   {
  48:Src/hk32f0xx_it.c ****   }
  56              		.loc 1 48 3 discriminator 1 view .LVU4
  46:Src/hk32f0xx_it.c ****   {
  57              		.loc 1 46 9 discriminator 1 view .LVU5
  58 0000 FEE7     		b	.L3
  59              		.cfi_endproc
  60              	.LFE34:
  62              		.section	.text.SVC_Handler,"ax",%progbits
  63              		.align	1
  64              		.global	SVC_Handler
  65              		.syntax unified
  66              		.code	16
  67              		.thumb_func
  68              		.fpu softvfp
  70              	SVC_Handler:
ARM GAS  /var/folders/ww/rl_brt8s5pq2m4_0c4ltm8d00000gn/T//ccdrk6Ya.s 			page 3


  71              	.LFB35:
  49:Src/hk32f0xx_it.c **** }
  50:Src/hk32f0xx_it.c **** 
  51:Src/hk32f0xx_it.c **** /**
  52:Src/hk32f0xx_it.c ****   * @brief  This function handles SVCall exception.
  53:Src/hk32f0xx_it.c ****   * @param  None
  54:Src/hk32f0xx_it.c ****   * @retval None
  55:Src/hk32f0xx_it.c ****   */
  56:Src/hk32f0xx_it.c **** void SVC_Handler(void)
  57:Src/hk32f0xx_it.c **** {
  72              		.loc 1 57 1 view -0
  73              		.cfi_startproc
  74              		@ args = 0, pretend = 0, frame = 0
  75              		@ frame_needed = 0, uses_anonymous_args = 0
  76              		@ link register save eliminated.
  58:Src/hk32f0xx_it.c **** }
  77              		.loc 1 58 1 view .LVU7
  78              		@ sp needed
  79 0000 7047     		bx	lr
  80              		.cfi_endproc
  81              	.LFE35:
  83              		.section	.text.PendSV_Handler,"ax",%progbits
  84              		.align	1
  85              		.global	PendSV_Handler
  86              		.syntax unified
  87              		.code	16
  88              		.thumb_func
  89              		.fpu softvfp
  91              	PendSV_Handler:
  92              	.LFB36:
  59:Src/hk32f0xx_it.c **** 
  60:Src/hk32f0xx_it.c **** /**
  61:Src/hk32f0xx_it.c ****   * @brief  This function handles PendSVC exception.
  62:Src/hk32f0xx_it.c ****   * @param  None
  63:Src/hk32f0xx_it.c ****   * @retval None
  64:Src/hk32f0xx_it.c ****   */
  65:Src/hk32f0xx_it.c **** void PendSV_Handler(void)
  66:Src/hk32f0xx_it.c **** {
  93              		.loc 1 66 1 view -0
  94              		.cfi_startproc
  95              		@ args = 0, pretend = 0, frame = 0
  96              		@ frame_needed = 0, uses_anonymous_args = 0
  97              		@ link register save eliminated.
  67:Src/hk32f0xx_it.c **** }
  98              		.loc 1 67 1 view .LVU9
  99              		@ sp needed
 100 0000 7047     		bx	lr
 101              		.cfi_endproc
 102              	.LFE36:
 104              		.section	.text.SysTick_Handler,"ax",%progbits
 105              		.align	1
 106              		.global	SysTick_Handler
 107              		.syntax unified
 108              		.code	16
 109              		.thumb_func
 110              		.fpu softvfp
 112              	SysTick_Handler:
ARM GAS  /var/folders/ww/rl_brt8s5pq2m4_0c4ltm8d00000gn/T//ccdrk6Ya.s 			page 4


 113              	.LFB37:
  68:Src/hk32f0xx_it.c **** 
  69:Src/hk32f0xx_it.c **** /**
  70:Src/hk32f0xx_it.c ****   * @brief  This function handles SysTick Handler.
  71:Src/hk32f0xx_it.c ****   * @param  None
  72:Src/hk32f0xx_it.c ****   * @retval None
  73:Src/hk32f0xx_it.c ****   */
  74:Src/hk32f0xx_it.c **** void SysTick_Handler(void)
  75:Src/hk32f0xx_it.c **** {
 114              		.loc 1 75 1 view -0
 115              		.cfi_startproc
 116              		@ args = 0, pretend = 0, frame = 0
 117              		@ frame_needed = 0, uses_anonymous_args = 0
 118              		@ link register save eliminated.
  76:Src/hk32f0xx_it.c **** }
 119              		.loc 1 76 1 view .LVU11
 120              		@ sp needed
 121 0000 7047     		bx	lr
 122              		.cfi_endproc
 123              	.LFE37:
 125              		.text
 126              	.Letext0:
ARM GAS  /var/folders/ww/rl_brt8s5pq2m4_0c4ltm8d00000gn/T//ccdrk6Ya.s 			page 5

