ARM GAS  /var/folders/ww/rl_brt8s5pq2m4_0c4ltm8d00000gn/T//cc6AYTBl.s 			page 1


   1              		.cpu cortex-m0
   2              		.eabi_attribute 20, 1
   3              		.eabi_attribute 21, 1
   4              		.eabi_attribute 23, 3
   5              		.eabi_attribute 24, 1
   6              		.eabi_attribute 25, 1
   7              		.eabi_attribute 26, 1
   8              		.eabi_attribute 30, 1
   9              		.eabi_attribute 34, 0
  10              		.eabi_attribute 18, 4
  11              		.file	"hk32f0xx_gpio.c"
  12              		.text
  13              	.Ltext0:
  14              		.cfi_sections	.debug_frame
  15              		.section	.text.GPIO_DeInit,"ax",%progbits
  16              		.align	1
  17              		.global	GPIO_DeInit
  18              		.arch armv6s-m
  19              		.syntax unified
  20              		.code	16
  21              		.thumb_func
  22              		.fpu softvfp
  24              	GPIO_DeInit:
  25              	.LVL0:
  26              	.LFB33:
  27              		.file 1 "hk_lib/HK32F030/STD_LIB/src/hk32f0xx_gpio.c"
   1:hk_lib/HK32F030/STD_LIB/src/hk32f0xx_gpio.c **** /**
   2:hk_lib/HK32F030/STD_LIB/src/hk32f0xx_gpio.c ****   ******************************************************************************
   3:hk_lib/HK32F030/STD_LIB/src/hk32f0xx_gpio.c ****   * @file    hk32f0xx_gpio.c 
   4:hk_lib/HK32F030/STD_LIB/src/hk32f0xx_gpio.c ****     ===========================================================================
   5:hk_lib/HK32F030/STD_LIB/src/hk32f0xx_gpio.c ****                          ##### How to use this driver #####
   6:hk_lib/HK32F030/STD_LIB/src/hk32f0xx_gpio.c ****     ===========================================================================
   7:hk_lib/HK32F030/STD_LIB/src/hk32f0xx_gpio.c ****       [..]
   8:hk_lib/HK32F030/STD_LIB/src/hk32f0xx_gpio.c ****       (#) Enable the GPIO AHB clock using RCC_AHBPeriphClockCmd()
   9:hk_lib/HK32F030/STD_LIB/src/hk32f0xx_gpio.c ****       (#) Configure the GPIO pin(s) using GPIO_Init()
  10:hk_lib/HK32F030/STD_LIB/src/hk32f0xx_gpio.c ****           Four possible configuration are available for each pin:
  11:hk_lib/HK32F030/STD_LIB/src/hk32f0xx_gpio.c ****          (++) Input: Floating, Pull-up, Pull-down.
  12:hk_lib/HK32F030/STD_LIB/src/hk32f0xx_gpio.c ****          (++) Output: Push-Pull (Pull-up, Pull-down or no Pull)
  13:hk_lib/HK32F030/STD_LIB/src/hk32f0xx_gpio.c ****                       Open Drain (Pull-up, Pull-down or no Pull).
  14:hk_lib/HK32F030/STD_LIB/src/hk32f0xx_gpio.c ****               In output mode, the speed is configurable: Low, Medium, Fast or High.
  15:hk_lib/HK32F030/STD_LIB/src/hk32f0xx_gpio.c ****          (++) Alternate Function: Push-Pull (Pull-up, Pull-down or no Pull)
  16:hk_lib/HK32F030/STD_LIB/src/hk32f0xx_gpio.c ****                                   Open Drain (Pull-up, Pull-down or no Pull).
  17:hk_lib/HK32F030/STD_LIB/src/hk32f0xx_gpio.c ****          (++) Analog: required mode when a pin is to be used as ADC channel,
  18:hk_lib/HK32F030/STD_LIB/src/hk32f0xx_gpio.c ****               DAC output or comparator input.
  19:hk_lib/HK32F030/STD_LIB/src/hk32f0xx_gpio.c ****       (#) Peripherals alternate function:
  20:hk_lib/HK32F030/STD_LIB/src/hk32f0xx_gpio.c ****          (++) For ADC, DAC and comparators, configure the desired pin in analog 
  21:hk_lib/HK32F030/STD_LIB/src/hk32f0xx_gpio.c ****               mode using GPIO_InitStruct->GPIO_Mode = GPIO_Mode_AN
  22:hk_lib/HK32F030/STD_LIB/src/hk32f0xx_gpio.c ****          (++) For other peripherals (TIM, USART...):
  23:hk_lib/HK32F030/STD_LIB/src/hk32f0xx_gpio.c ****               (+++) Connect the pin to the desired peripherals' Alternate 
  24:hk_lib/HK32F030/STD_LIB/src/hk32f0xx_gpio.c ****                     Function (AF) using GPIO_PinAFConfig() function. For PortC, 
  25:hk_lib/HK32F030/STD_LIB/src/hk32f0xx_gpio.c ****                     PortD and PortF, no configuration is needed.
  26:hk_lib/HK32F030/STD_LIB/src/hk32f0xx_gpio.c ****               (+++) Configure the desired pin in alternate function mode using
  27:hk_lib/HK32F030/STD_LIB/src/hk32f0xx_gpio.c ****                     GPIO_InitStruct->GPIO_Mode = GPIO_Mode_AF
  28:hk_lib/HK32F030/STD_LIB/src/hk32f0xx_gpio.c ****               (+++) Select the type, pull-up/pull-down and output speed via 
  29:hk_lib/HK32F030/STD_LIB/src/hk32f0xx_gpio.c ****                     GPIO_PuPd, GPIO_OType and GPIO_Speed members
  30:hk_lib/HK32F030/STD_LIB/src/hk32f0xx_gpio.c ****               (+++) Call GPIO_Init() function
  31:hk_lib/HK32F030/STD_LIB/src/hk32f0xx_gpio.c ****       (#) To get the level of a pin configured in input mode use GPIO_ReadInputDataBit()
ARM GAS  /var/folders/ww/rl_brt8s5pq2m4_0c4ltm8d00000gn/T//cc6AYTBl.s 			page 2


  32:hk_lib/HK32F030/STD_LIB/src/hk32f0xx_gpio.c ****       (#) To set/reset the level of a pin configured in output mode use
  33:hk_lib/HK32F030/STD_LIB/src/hk32f0xx_gpio.c ****           GPIO_SetBits()/GPIO_ResetBits()
  34:hk_lib/HK32F030/STD_LIB/src/hk32f0xx_gpio.c ****       (#) During and just after reset, the alternate functions are not active and 
  35:hk_lib/HK32F030/STD_LIB/src/hk32f0xx_gpio.c ****           the GPIO pins are configured in input floating mode (except JTAG pins).
  36:hk_lib/HK32F030/STD_LIB/src/hk32f0xx_gpio.c ****       (#) The LSE oscillator pins OSC32_IN and OSC32_OUT can be used as 
  37:hk_lib/HK32F030/STD_LIB/src/hk32f0xx_gpio.c ****           general-purpose (PC14 and PC15, respectively) when the LSE oscillator 
  38:hk_lib/HK32F030/STD_LIB/src/hk32f0xx_gpio.c ****           is off. The LSE has priority over the GPIO function.
  39:hk_lib/HK32F030/STD_LIB/src/hk32f0xx_gpio.c ****       (#) The HSE oscillator pins OSC_IN/OSC_OUT can be used as general-purpose 
  40:hk_lib/HK32F030/STD_LIB/src/hk32f0xx_gpio.c ****           PD0 and PD1, respectively, when the HSE oscillator is off. The HSE has 
  41:hk_lib/HK32F030/STD_LIB/src/hk32f0xx_gpio.c ****           priority over the GPIO function.
  42:hk_lib/HK32F030/STD_LIB/src/hk32f0xx_gpio.c ****     @endverbatim
  43:hk_lib/HK32F030/STD_LIB/src/hk32f0xx_gpio.c ****   ****************************************************************************** 
  44:hk_lib/HK32F030/STD_LIB/src/hk32f0xx_gpio.c ****   */
  45:hk_lib/HK32F030/STD_LIB/src/hk32f0xx_gpio.c **** 
  46:hk_lib/HK32F030/STD_LIB/src/hk32f0xx_gpio.c **** /* Includes ------------------------------------------------------------------*/
  47:hk_lib/HK32F030/STD_LIB/src/hk32f0xx_gpio.c **** #include "hk32f0xx_gpio.h"
  48:hk_lib/HK32F030/STD_LIB/src/hk32f0xx_gpio.c **** #include "hk32f0xx_rcc.h"
  49:hk_lib/HK32F030/STD_LIB/src/hk32f0xx_gpio.c **** 
  50:hk_lib/HK32F030/STD_LIB/src/hk32f0xx_gpio.c **** /** @addtogroup HK32F0xx_StdPeriph_Driver
  51:hk_lib/HK32F030/STD_LIB/src/hk32f0xx_gpio.c ****   * @{
  52:hk_lib/HK32F030/STD_LIB/src/hk32f0xx_gpio.c ****   */
  53:hk_lib/HK32F030/STD_LIB/src/hk32f0xx_gpio.c **** 
  54:hk_lib/HK32F030/STD_LIB/src/hk32f0xx_gpio.c **** /** @defgroup GPIO 
  55:hk_lib/HK32F030/STD_LIB/src/hk32f0xx_gpio.c ****   * @brief GPIO driver modules
  56:hk_lib/HK32F030/STD_LIB/src/hk32f0xx_gpio.c ****   * @{
  57:hk_lib/HK32F030/STD_LIB/src/hk32f0xx_gpio.c ****   */
  58:hk_lib/HK32F030/STD_LIB/src/hk32f0xx_gpio.c **** 
  59:hk_lib/HK32F030/STD_LIB/src/hk32f0xx_gpio.c **** /* Private typedef -----------------------------------------------------------*/
  60:hk_lib/HK32F030/STD_LIB/src/hk32f0xx_gpio.c **** /* Private define ------------------------------------------------------------*/
  61:hk_lib/HK32F030/STD_LIB/src/hk32f0xx_gpio.c **** /* Private macro -------------------------------------------------------------*/
  62:hk_lib/HK32F030/STD_LIB/src/hk32f0xx_gpio.c **** /* Private variables ---------------------------------------------------------*/
  63:hk_lib/HK32F030/STD_LIB/src/hk32f0xx_gpio.c **** /* Private function prototypes -----------------------------------------------*/
  64:hk_lib/HK32F030/STD_LIB/src/hk32f0xx_gpio.c **** /* Private functions ---------------------------------------------------------*/
  65:hk_lib/HK32F030/STD_LIB/src/hk32f0xx_gpio.c **** 
  66:hk_lib/HK32F030/STD_LIB/src/hk32f0xx_gpio.c **** /** @defgroup GPIO_Private_Functions 
  67:hk_lib/HK32F030/STD_LIB/src/hk32f0xx_gpio.c ****   * @{
  68:hk_lib/HK32F030/STD_LIB/src/hk32f0xx_gpio.c ****   */
  69:hk_lib/HK32F030/STD_LIB/src/hk32f0xx_gpio.c **** 
  70:hk_lib/HK32F030/STD_LIB/src/hk32f0xx_gpio.c **** /** @defgroup GPIO_Group1 Initialization and Configuration
  71:hk_lib/HK32F030/STD_LIB/src/hk32f0xx_gpio.c ****  *  @brief   Initialization and Configuration
  72:hk_lib/HK32F030/STD_LIB/src/hk32f0xx_gpio.c ****  *
  73:hk_lib/HK32F030/STD_LIB/src/hk32f0xx_gpio.c **** @verbatim
  74:hk_lib/HK32F030/STD_LIB/src/hk32f0xx_gpio.c ****  ===============================================================================
  75:hk_lib/HK32F030/STD_LIB/src/hk32f0xx_gpio.c ****                     ##### Initialization and Configuration #####
  76:hk_lib/HK32F030/STD_LIB/src/hk32f0xx_gpio.c ****  ===============================================================================
  77:hk_lib/HK32F030/STD_LIB/src/hk32f0xx_gpio.c **** 
  78:hk_lib/HK32F030/STD_LIB/src/hk32f0xx_gpio.c **** @endverbatim
  79:hk_lib/HK32F030/STD_LIB/src/hk32f0xx_gpio.c ****   * @{
  80:hk_lib/HK32F030/STD_LIB/src/hk32f0xx_gpio.c ****   */
  81:hk_lib/HK32F030/STD_LIB/src/hk32f0xx_gpio.c **** 
  82:hk_lib/HK32F030/STD_LIB/src/hk32f0xx_gpio.c **** /**
  83:hk_lib/HK32F030/STD_LIB/src/hk32f0xx_gpio.c ****   * @brief  Deinitializes the GPIOx peripheral registers to their default reset 
  84:hk_lib/HK32F030/STD_LIB/src/hk32f0xx_gpio.c ****   *         values.
  85:hk_lib/HK32F030/STD_LIB/src/hk32f0xx_gpio.c ****   * @param  GPIOx: where x can be (A, B, C, D, E or F) to select the GPIO peripheral.
  86:hk_lib/HK32F030/STD_LIB/src/hk32f0xx_gpio.c ****   * @note   GPIOE is available only for HK32F072.
  87:hk_lib/HK32F030/STD_LIB/src/hk32f0xx_gpio.c ****   * @note   GPIOD is not available for HK32F031.    
  88:hk_lib/HK32F030/STD_LIB/src/hk32f0xx_gpio.c ****   * @retval None
ARM GAS  /var/folders/ww/rl_brt8s5pq2m4_0c4ltm8d00000gn/T//cc6AYTBl.s 			page 3


  89:hk_lib/HK32F030/STD_LIB/src/hk32f0xx_gpio.c ****   */
  90:hk_lib/HK32F030/STD_LIB/src/hk32f0xx_gpio.c **** void GPIO_DeInit(GPIO_TypeDef* GPIOx)
  91:hk_lib/HK32F030/STD_LIB/src/hk32f0xx_gpio.c **** {
  28              		.loc 1 91 1 view -0
  29              		.cfi_startproc
  30              		@ args = 0, pretend = 0, frame = 0
  31              		@ frame_needed = 0, uses_anonymous_args = 0
  32              		.loc 1 91 1 is_stmt 0 view .LVU1
  33 0000 10B5     		push	{r4, lr}
  34              	.LCFI0:
  35              		.cfi_def_cfa_offset 8
  36              		.cfi_offset 4, -8
  37              		.cfi_offset 14, -4
  92:hk_lib/HK32F030/STD_LIB/src/hk32f0xx_gpio.c ****   /* Check the parameters */
  93:hk_lib/HK32F030/STD_LIB/src/hk32f0xx_gpio.c ****   assert_param(IS_GPIO_ALL_PERIPH(GPIOx));
  38              		.loc 1 93 3 is_stmt 1 view .LVU2
  94:hk_lib/HK32F030/STD_LIB/src/hk32f0xx_gpio.c **** 
  95:hk_lib/HK32F030/STD_LIB/src/hk32f0xx_gpio.c ****   if(GPIOx == GPIOA)
  39              		.loc 1 95 3 view .LVU3
  40              		.loc 1 95 5 is_stmt 0 view .LVU4
  41 0002 9023     		movs	r3, #144
  42 0004 DB05     		lsls	r3, r3, #23
  43 0006 9842     		cmp	r0, r3
  44 0008 0FD0     		beq	.L8
  96:hk_lib/HK32F030/STD_LIB/src/hk32f0xx_gpio.c ****   {
  97:hk_lib/HK32F030/STD_LIB/src/hk32f0xx_gpio.c ****     RCC_AHBPeriphResetCmd(RCC_AHBPeriph_GPIOA, ENABLE);
  98:hk_lib/HK32F030/STD_LIB/src/hk32f0xx_gpio.c ****     RCC_AHBPeriphResetCmd(RCC_AHBPeriph_GPIOA, DISABLE);
  99:hk_lib/HK32F030/STD_LIB/src/hk32f0xx_gpio.c ****   }
 100:hk_lib/HK32F030/STD_LIB/src/hk32f0xx_gpio.c ****   else if(GPIOx == GPIOB)
  45              		.loc 1 100 8 is_stmt 1 view .LVU5
  46              		.loc 1 100 10 is_stmt 0 view .LVU6
  47 000a 294B     		ldr	r3, .L14
  48 000c 9842     		cmp	r0, r3
  49 000e 17D0     		beq	.L9
 101:hk_lib/HK32F030/STD_LIB/src/hk32f0xx_gpio.c ****   {
 102:hk_lib/HK32F030/STD_LIB/src/hk32f0xx_gpio.c ****     RCC_AHBPeriphResetCmd(RCC_AHBPeriph_GPIOB, ENABLE);
 103:hk_lib/HK32F030/STD_LIB/src/hk32f0xx_gpio.c ****     RCC_AHBPeriphResetCmd(RCC_AHBPeriph_GPIOB, DISABLE);
 104:hk_lib/HK32F030/STD_LIB/src/hk32f0xx_gpio.c ****   }
 105:hk_lib/HK32F030/STD_LIB/src/hk32f0xx_gpio.c ****   else if(GPIOx == GPIOC)
  50              		.loc 1 105 8 is_stmt 1 view .LVU7
  51              		.loc 1 105 10 is_stmt 0 view .LVU8
  52 0010 284B     		ldr	r3, .L14+4
  53 0012 9842     		cmp	r0, r3
  54 0014 1FD0     		beq	.L10
 106:hk_lib/HK32F030/STD_LIB/src/hk32f0xx_gpio.c ****   {
 107:hk_lib/HK32F030/STD_LIB/src/hk32f0xx_gpio.c ****     RCC_AHBPeriphResetCmd(RCC_AHBPeriph_GPIOC, ENABLE);
 108:hk_lib/HK32F030/STD_LIB/src/hk32f0xx_gpio.c ****     RCC_AHBPeriphResetCmd(RCC_AHBPeriph_GPIOC, DISABLE);
 109:hk_lib/HK32F030/STD_LIB/src/hk32f0xx_gpio.c ****   }
 110:hk_lib/HK32F030/STD_LIB/src/hk32f0xx_gpio.c ****   else if(GPIOx == GPIOD)
  55              		.loc 1 110 8 is_stmt 1 view .LVU9
  56              		.loc 1 110 10 is_stmt 0 view .LVU10
  57 0016 284B     		ldr	r3, .L14+8
  58 0018 9842     		cmp	r0, r3
  59 001a 27D0     		beq	.L11
 111:hk_lib/HK32F030/STD_LIB/src/hk32f0xx_gpio.c ****   {
 112:hk_lib/HK32F030/STD_LIB/src/hk32f0xx_gpio.c ****     RCC_AHBPeriphResetCmd(RCC_AHBPeriph_GPIOD, ENABLE);
 113:hk_lib/HK32F030/STD_LIB/src/hk32f0xx_gpio.c ****     RCC_AHBPeriphResetCmd(RCC_AHBPeriph_GPIOD, DISABLE);
ARM GAS  /var/folders/ww/rl_brt8s5pq2m4_0c4ltm8d00000gn/T//cc6AYTBl.s 			page 4


 114:hk_lib/HK32F030/STD_LIB/src/hk32f0xx_gpio.c ****   }
 115:hk_lib/HK32F030/STD_LIB/src/hk32f0xx_gpio.c ****   else if(GPIOx == GPIOE)
  60              		.loc 1 115 8 is_stmt 1 view .LVU11
  61              		.loc 1 115 10 is_stmt 0 view .LVU12
  62 001c 274B     		ldr	r3, .L14+12
  63 001e 9842     		cmp	r0, r3
  64 0020 2FD0     		beq	.L12
 116:hk_lib/HK32F030/STD_LIB/src/hk32f0xx_gpio.c ****   {
 117:hk_lib/HK32F030/STD_LIB/src/hk32f0xx_gpio.c ****     RCC_AHBPeriphResetCmd(RCC_AHBPeriph_GPIOE, ENABLE);
 118:hk_lib/HK32F030/STD_LIB/src/hk32f0xx_gpio.c ****     RCC_AHBPeriphResetCmd(RCC_AHBPeriph_GPIOE, DISABLE);
 119:hk_lib/HK32F030/STD_LIB/src/hk32f0xx_gpio.c ****   }
 120:hk_lib/HK32F030/STD_LIB/src/hk32f0xx_gpio.c ****   else
 121:hk_lib/HK32F030/STD_LIB/src/hk32f0xx_gpio.c ****   {
 122:hk_lib/HK32F030/STD_LIB/src/hk32f0xx_gpio.c ****     if(GPIOx == GPIOF)
  65              		.loc 1 122 5 is_stmt 1 view .LVU13
  66              		.loc 1 122 7 is_stmt 0 view .LVU14
  67 0022 274B     		ldr	r3, .L14+16
  68 0024 9842     		cmp	r0, r3
  69 0026 37D0     		beq	.L13
  70              	.LVL1:
  71              	.L1:
 123:hk_lib/HK32F030/STD_LIB/src/hk32f0xx_gpio.c ****     {
 124:hk_lib/HK32F030/STD_LIB/src/hk32f0xx_gpio.c ****       RCC_AHBPeriphResetCmd(RCC_AHBPeriph_GPIOF, ENABLE);
 125:hk_lib/HK32F030/STD_LIB/src/hk32f0xx_gpio.c ****       RCC_AHBPeriphResetCmd(RCC_AHBPeriph_GPIOF, DISABLE);
 126:hk_lib/HK32F030/STD_LIB/src/hk32f0xx_gpio.c ****     }
 127:hk_lib/HK32F030/STD_LIB/src/hk32f0xx_gpio.c ****   }
 128:hk_lib/HK32F030/STD_LIB/src/hk32f0xx_gpio.c **** }
  72              		.loc 1 128 1 view .LVU15
  73              		@ sp needed
  74 0028 10BD     		pop	{r4, pc}
  75              	.LVL2:
  76              	.L8:
  97:hk_lib/HK32F030/STD_LIB/src/hk32f0xx_gpio.c ****     RCC_AHBPeriphResetCmd(RCC_AHBPeriph_GPIOA, DISABLE);
  77              		.loc 1 97 5 is_stmt 1 view .LVU16
  78 002a 8024     		movs	r4, #128
  79 002c A402     		lsls	r4, r4, #10
  80 002e 0121     		movs	r1, #1
  81 0030 2000     		movs	r0, r4
  82              	.LVL3:
  97:hk_lib/HK32F030/STD_LIB/src/hk32f0xx_gpio.c ****     RCC_AHBPeriphResetCmd(RCC_AHBPeriph_GPIOA, DISABLE);
  83              		.loc 1 97 5 is_stmt 0 view .LVU17
  84 0032 FFF7FEFF 		bl	RCC_AHBPeriphResetCmd
  85              	.LVL4:
  98:hk_lib/HK32F030/STD_LIB/src/hk32f0xx_gpio.c ****   }
  86              		.loc 1 98 5 is_stmt 1 view .LVU18
  87 0036 0021     		movs	r1, #0
  88 0038 2000     		movs	r0, r4
  89 003a FFF7FEFF 		bl	RCC_AHBPeriphResetCmd
  90              	.LVL5:
  91 003e F3E7     		b	.L1
  92              	.LVL6:
  93              	.L9:
 102:hk_lib/HK32F030/STD_LIB/src/hk32f0xx_gpio.c ****     RCC_AHBPeriphResetCmd(RCC_AHBPeriph_GPIOB, DISABLE);
  94              		.loc 1 102 5 view .LVU19
  95 0040 8024     		movs	r4, #128
  96 0042 E402     		lsls	r4, r4, #11
  97 0044 0121     		movs	r1, #1
ARM GAS  /var/folders/ww/rl_brt8s5pq2m4_0c4ltm8d00000gn/T//cc6AYTBl.s 			page 5


  98 0046 2000     		movs	r0, r4
  99              	.LVL7:
 102:hk_lib/HK32F030/STD_LIB/src/hk32f0xx_gpio.c ****     RCC_AHBPeriphResetCmd(RCC_AHBPeriph_GPIOB, DISABLE);
 100              		.loc 1 102 5 is_stmt 0 view .LVU20
 101 0048 FFF7FEFF 		bl	RCC_AHBPeriphResetCmd
 102              	.LVL8:
 103:hk_lib/HK32F030/STD_LIB/src/hk32f0xx_gpio.c ****   }
 103              		.loc 1 103 5 is_stmt 1 view .LVU21
 104 004c 0021     		movs	r1, #0
 105 004e 2000     		movs	r0, r4
 106 0050 FFF7FEFF 		bl	RCC_AHBPeriphResetCmd
 107              	.LVL9:
 108 0054 E8E7     		b	.L1
 109              	.LVL10:
 110              	.L10:
 107:hk_lib/HK32F030/STD_LIB/src/hk32f0xx_gpio.c ****     RCC_AHBPeriphResetCmd(RCC_AHBPeriph_GPIOC, DISABLE);
 111              		.loc 1 107 5 view .LVU22
 112 0056 8024     		movs	r4, #128
 113 0058 2403     		lsls	r4, r4, #12
 114 005a 0121     		movs	r1, #1
 115 005c 2000     		movs	r0, r4
 116              	.LVL11:
 107:hk_lib/HK32F030/STD_LIB/src/hk32f0xx_gpio.c ****     RCC_AHBPeriphResetCmd(RCC_AHBPeriph_GPIOC, DISABLE);
 117              		.loc 1 107 5 is_stmt 0 view .LVU23
 118 005e FFF7FEFF 		bl	RCC_AHBPeriphResetCmd
 119              	.LVL12:
 108:hk_lib/HK32F030/STD_LIB/src/hk32f0xx_gpio.c ****   }
 120              		.loc 1 108 5 is_stmt 1 view .LVU24
 121 0062 0021     		movs	r1, #0
 122 0064 2000     		movs	r0, r4
 123 0066 FFF7FEFF 		bl	RCC_AHBPeriphResetCmd
 124              	.LVL13:
 125 006a DDE7     		b	.L1
 126              	.LVL14:
 127              	.L11:
 112:hk_lib/HK32F030/STD_LIB/src/hk32f0xx_gpio.c ****     RCC_AHBPeriphResetCmd(RCC_AHBPeriph_GPIOD, DISABLE);
 128              		.loc 1 112 5 view .LVU25
 129 006c 8024     		movs	r4, #128
 130 006e 6403     		lsls	r4, r4, #13
 131 0070 0121     		movs	r1, #1
 132 0072 2000     		movs	r0, r4
 133              	.LVL15:
 112:hk_lib/HK32F030/STD_LIB/src/hk32f0xx_gpio.c ****     RCC_AHBPeriphResetCmd(RCC_AHBPeriph_GPIOD, DISABLE);
 134              		.loc 1 112 5 is_stmt 0 view .LVU26
 135 0074 FFF7FEFF 		bl	RCC_AHBPeriphResetCmd
 136              	.LVL16:
 113:hk_lib/HK32F030/STD_LIB/src/hk32f0xx_gpio.c ****   }
 137              		.loc 1 113 5 is_stmt 1 view .LVU27
 138 0078 0021     		movs	r1, #0
 139 007a 2000     		movs	r0, r4
 140 007c FFF7FEFF 		bl	RCC_AHBPeriphResetCmd
 141              	.LVL17:
 142 0080 D2E7     		b	.L1
 143              	.LVL18:
 144              	.L12:
 117:hk_lib/HK32F030/STD_LIB/src/hk32f0xx_gpio.c ****     RCC_AHBPeriphResetCmd(RCC_AHBPeriph_GPIOE, DISABLE);
 145              		.loc 1 117 5 view .LVU28
ARM GAS  /var/folders/ww/rl_brt8s5pq2m4_0c4ltm8d00000gn/T//cc6AYTBl.s 			page 6


 146 0082 8024     		movs	r4, #128
 147 0084 A403     		lsls	r4, r4, #14
 148 0086 0121     		movs	r1, #1
 149 0088 2000     		movs	r0, r4
 150              	.LVL19:
 117:hk_lib/HK32F030/STD_LIB/src/hk32f0xx_gpio.c ****     RCC_AHBPeriphResetCmd(RCC_AHBPeriph_GPIOE, DISABLE);
 151              		.loc 1 117 5 is_stmt 0 view .LVU29
 152 008a FFF7FEFF 		bl	RCC_AHBPeriphResetCmd
 153              	.LVL20:
 118:hk_lib/HK32F030/STD_LIB/src/hk32f0xx_gpio.c ****   }
 154              		.loc 1 118 5 is_stmt 1 view .LVU30
 155 008e 0021     		movs	r1, #0
 156 0090 2000     		movs	r0, r4
 157 0092 FFF7FEFF 		bl	RCC_AHBPeriphResetCmd
 158              	.LVL21:
 159 0096 C7E7     		b	.L1
 160              	.LVL22:
 161              	.L13:
 124:hk_lib/HK32F030/STD_LIB/src/hk32f0xx_gpio.c ****       RCC_AHBPeriphResetCmd(RCC_AHBPeriph_GPIOF, DISABLE);
 162              		.loc 1 124 7 view .LVU31
 163 0098 8024     		movs	r4, #128
 164 009a E403     		lsls	r4, r4, #15
 165 009c 0121     		movs	r1, #1
 166 009e 2000     		movs	r0, r4
 167              	.LVL23:
 124:hk_lib/HK32F030/STD_LIB/src/hk32f0xx_gpio.c ****       RCC_AHBPeriphResetCmd(RCC_AHBPeriph_GPIOF, DISABLE);
 168              		.loc 1 124 7 is_stmt 0 view .LVU32
 169 00a0 FFF7FEFF 		bl	RCC_AHBPeriphResetCmd
 170              	.LVL24:
 125:hk_lib/HK32F030/STD_LIB/src/hk32f0xx_gpio.c ****     }
 171              		.loc 1 125 7 is_stmt 1 view .LVU33
 172 00a4 0021     		movs	r1, #0
 173 00a6 2000     		movs	r0, r4
 174 00a8 FFF7FEFF 		bl	RCC_AHBPeriphResetCmd
 175              	.LVL25:
 176              		.loc 1 128 1 is_stmt 0 view .LVU34
 177 00ac BCE7     		b	.L1
 178              	.L15:
 179 00ae C046     		.align	2
 180              	.L14:
 181 00b0 00040048 		.word	1207960576
 182 00b4 00080048 		.word	1207961600
 183 00b8 000C0048 		.word	1207962624
 184 00bc 00100048 		.word	1207963648
 185 00c0 00140048 		.word	1207964672
 186              		.cfi_endproc
 187              	.LFE33:
 189              		.section	.text.GPIO_Init,"ax",%progbits
 190              		.align	1
 191              		.global	GPIO_Init
 192              		.syntax unified
 193              		.code	16
 194              		.thumb_func
 195              		.fpu softvfp
 197              	GPIO_Init:
 198              	.LVL26:
 199              	.LFB34:
ARM GAS  /var/folders/ww/rl_brt8s5pq2m4_0c4ltm8d00000gn/T//cc6AYTBl.s 			page 7


 129:hk_lib/HK32F030/STD_LIB/src/hk32f0xx_gpio.c **** 
 130:hk_lib/HK32F030/STD_LIB/src/hk32f0xx_gpio.c **** /**
 131:hk_lib/HK32F030/STD_LIB/src/hk32f0xx_gpio.c ****   * @brief  Initializes the GPIOx peripheral according to the specified 
 132:hk_lib/HK32F030/STD_LIB/src/hk32f0xx_gpio.c ****   *         parameters in the GPIO_InitStruct.
 133:hk_lib/HK32F030/STD_LIB/src/hk32f0xx_gpio.c ****   * @param  GPIOx: where x can be (A, B, C, D, E or F) to select the GPIO peripheral.
 134:hk_lib/HK32F030/STD_LIB/src/hk32f0xx_gpio.c ****   * @note   GPIOE is available only for HK32F072.
 135:hk_lib/HK32F030/STD_LIB/src/hk32f0xx_gpio.c ****   * @note   GPIOD is not available for HK32F031.   
 136:hk_lib/HK32F030/STD_LIB/src/hk32f0xx_gpio.c ****   * @param  GPIO_InitStruct: pointer to a GPIO_InitTypeDef structure that contains
 137:hk_lib/HK32F030/STD_LIB/src/hk32f0xx_gpio.c ****   *         the configuration information for the specified GPIO peripheral.
 138:hk_lib/HK32F030/STD_LIB/src/hk32f0xx_gpio.c ****   * @retval None
 139:hk_lib/HK32F030/STD_LIB/src/hk32f0xx_gpio.c ****   */
 140:hk_lib/HK32F030/STD_LIB/src/hk32f0xx_gpio.c **** void GPIO_Init(GPIO_TypeDef* GPIOx, GPIO_InitTypeDef* GPIO_InitStruct)
 141:hk_lib/HK32F030/STD_LIB/src/hk32f0xx_gpio.c **** {
 200              		.loc 1 141 1 is_stmt 1 view -0
 201              		.cfi_startproc
 202              		@ args = 0, pretend = 0, frame = 0
 203              		@ frame_needed = 0, uses_anonymous_args = 0
 204              		.loc 1 141 1 is_stmt 0 view .LVU36
 205 0000 70B5     		push	{r4, r5, r6, lr}
 206              	.LCFI1:
 207              		.cfi_def_cfa_offset 16
 208              		.cfi_offset 4, -16
 209              		.cfi_offset 5, -12
 210              		.cfi_offset 6, -8
 211              		.cfi_offset 14, -4
 142:hk_lib/HK32F030/STD_LIB/src/hk32f0xx_gpio.c ****   uint32_t pinpos = 0x00, pos = 0x00 , currentpin = 0x00;
 212              		.loc 1 142 3 is_stmt 1 view .LVU37
 213              	.LVL27:
 143:hk_lib/HK32F030/STD_LIB/src/hk32f0xx_gpio.c **** 
 144:hk_lib/HK32F030/STD_LIB/src/hk32f0xx_gpio.c ****   /* Check the parameters */
 145:hk_lib/HK32F030/STD_LIB/src/hk32f0xx_gpio.c ****   assert_param(IS_GPIO_ALL_PERIPH(GPIOx));
 214              		.loc 1 145 3 view .LVU38
 146:hk_lib/HK32F030/STD_LIB/src/hk32f0xx_gpio.c ****   assert_param(IS_GPIO_PIN(GPIO_InitStruct->GPIO_Pin));
 215              		.loc 1 146 3 view .LVU39
 147:hk_lib/HK32F030/STD_LIB/src/hk32f0xx_gpio.c ****   assert_param(IS_GPIO_MODE(GPIO_InitStruct->GPIO_Mode));
 216              		.loc 1 147 3 view .LVU40
 148:hk_lib/HK32F030/STD_LIB/src/hk32f0xx_gpio.c ****   assert_param(IS_GPIO_PUPD(GPIO_InitStruct->GPIO_PuPd));
 217              		.loc 1 148 3 view .LVU41
 149:hk_lib/HK32F030/STD_LIB/src/hk32f0xx_gpio.c **** 
 150:hk_lib/HK32F030/STD_LIB/src/hk32f0xx_gpio.c ****   /*-------------------------- Configure the port pins -----------------------*/
 151:hk_lib/HK32F030/STD_LIB/src/hk32f0xx_gpio.c ****   /*-- GPIO Mode Configuration --*/
 152:hk_lib/HK32F030/STD_LIB/src/hk32f0xx_gpio.c ****   for (pinpos = 0x00; pinpos < 0x10; pinpos++)
 218              		.loc 1 152 3 view .LVU42
 219              		.loc 1 152 15 is_stmt 0 view .LVU43
 220 0002 0023     		movs	r3, #0
 221              		.loc 1 152 3 view .LVU44
 222 0004 17E0     		b	.L17
 223              	.LVL28:
 224              	.L19:
 153:hk_lib/HK32F030/STD_LIB/src/hk32f0xx_gpio.c ****   {
 154:hk_lib/HK32F030/STD_LIB/src/hk32f0xx_gpio.c ****     pos = ((uint32_t)0x01) << pinpos;
 155:hk_lib/HK32F030/STD_LIB/src/hk32f0xx_gpio.c **** 
 156:hk_lib/HK32F030/STD_LIB/src/hk32f0xx_gpio.c ****     /* Get the port pins position */
 157:hk_lib/HK32F030/STD_LIB/src/hk32f0xx_gpio.c ****     currentpin = (GPIO_InitStruct->GPIO_Pin) & pos;
 158:hk_lib/HK32F030/STD_LIB/src/hk32f0xx_gpio.c **** 
 159:hk_lib/HK32F030/STD_LIB/src/hk32f0xx_gpio.c ****     if (currentpin == pos)
 160:hk_lib/HK32F030/STD_LIB/src/hk32f0xx_gpio.c ****     {
ARM GAS  /var/folders/ww/rl_brt8s5pq2m4_0c4ltm8d00000gn/T//cc6AYTBl.s 			page 8


 161:hk_lib/HK32F030/STD_LIB/src/hk32f0xx_gpio.c ****       if ((GPIO_InitStruct->GPIO_Mode == GPIO_Mode_OUT) || (GPIO_InitStruct->GPIO_Mode == GPIO_Mode
 162:hk_lib/HK32F030/STD_LIB/src/hk32f0xx_gpio.c ****       {
 163:hk_lib/HK32F030/STD_LIB/src/hk32f0xx_gpio.c ****         /* Check Speed mode parameters */
 164:hk_lib/HK32F030/STD_LIB/src/hk32f0xx_gpio.c ****         assert_param(IS_GPIO_SPEED(GPIO_InitStruct->GPIO_Speed));
 165:hk_lib/HK32F030/STD_LIB/src/hk32f0xx_gpio.c **** 
 166:hk_lib/HK32F030/STD_LIB/src/hk32f0xx_gpio.c ****         /* Speed mode configuration */
 167:hk_lib/HK32F030/STD_LIB/src/hk32f0xx_gpio.c ****         GPIOx->OSPEEDR &= ~(GPIO_OSPEEDER_OSPEEDR0 << (pinpos * 2));
 168:hk_lib/HK32F030/STD_LIB/src/hk32f0xx_gpio.c ****         GPIOx->OSPEEDR |= ((uint32_t)(GPIO_InitStruct->GPIO_Speed) << (pinpos * 2));
 169:hk_lib/HK32F030/STD_LIB/src/hk32f0xx_gpio.c **** 
 170:hk_lib/HK32F030/STD_LIB/src/hk32f0xx_gpio.c ****         /* Check Output mode parameters */
 171:hk_lib/HK32F030/STD_LIB/src/hk32f0xx_gpio.c ****         assert_param(IS_GPIO_OTYPE(GPIO_InitStruct->GPIO_OType));
 172:hk_lib/HK32F030/STD_LIB/src/hk32f0xx_gpio.c **** 
 173:hk_lib/HK32F030/STD_LIB/src/hk32f0xx_gpio.c ****         /* Output mode configuration */
 174:hk_lib/HK32F030/STD_LIB/src/hk32f0xx_gpio.c ****         GPIOx->OTYPER &= ~((GPIO_OTYPER_OT_0) << ((uint16_t)pinpos));
 175:hk_lib/HK32F030/STD_LIB/src/hk32f0xx_gpio.c ****         GPIOx->OTYPER |= (uint16_t)(((uint16_t)GPIO_InitStruct->GPIO_OType) << ((uint16_t)pinpos));
 176:hk_lib/HK32F030/STD_LIB/src/hk32f0xx_gpio.c ****       }
 177:hk_lib/HK32F030/STD_LIB/src/hk32f0xx_gpio.c **** 
 178:hk_lib/HK32F030/STD_LIB/src/hk32f0xx_gpio.c ****       GPIOx->MODER  &= ~(GPIO_MODER_MODER0 << (pinpos * 2));
 225              		.loc 1 178 7 is_stmt 1 view .LVU45
 226              		.loc 1 178 21 is_stmt 0 view .LVU46
 227 0006 0468     		ldr	r4, [r0]
 228              		.loc 1 178 55 view .LVU47
 229 0008 5D00     		lsls	r5, r3, #1
 230              		.loc 1 178 44 view .LVU48
 231 000a 0322     		movs	r2, #3
 232 000c 1600     		movs	r6, r2
 233 000e AE40     		lsls	r6, r6, r5
 234              		.loc 1 178 21 view .LVU49
 235 0010 B443     		bics	r4, r6
 236 0012 0460     		str	r4, [r0]
 179:hk_lib/HK32F030/STD_LIB/src/hk32f0xx_gpio.c **** 
 180:hk_lib/HK32F030/STD_LIB/src/hk32f0xx_gpio.c ****       GPIOx->MODER |= (((uint32_t)GPIO_InitStruct->GPIO_Mode) << (pinpos * 2));
 237              		.loc 1 180 7 is_stmt 1 view .LVU50
 238              		.loc 1 180 20 is_stmt 0 view .LVU51
 239 0014 0468     		ldr	r4, [r0]
 240              		.loc 1 180 50 view .LVU52
 241 0016 0E79     		ldrb	r6, [r1, #4]
 242              		.loc 1 180 63 view .LVU53
 243 0018 AE40     		lsls	r6, r6, r5
 244              		.loc 1 180 20 view .LVU54
 245 001a 3443     		orrs	r4, r6
 246 001c 0460     		str	r4, [r0]
 181:hk_lib/HK32F030/STD_LIB/src/hk32f0xx_gpio.c **** 
 182:hk_lib/HK32F030/STD_LIB/src/hk32f0xx_gpio.c ****       /* Pull-up Pull down resistor configuration */
 183:hk_lib/HK32F030/STD_LIB/src/hk32f0xx_gpio.c ****       GPIOx->PUPDR &= ~(GPIO_PUPDR_PUPDR0 << ((uint16_t)pinpos * 2));
 247              		.loc 1 183 7 is_stmt 1 view .LVU55
 248              		.loc 1 183 20 is_stmt 0 view .LVU56
 249 001e C468     		ldr	r4, [r0, #12]
 250              		.loc 1 183 47 view .LVU57
 251 0020 1E04     		lsls	r6, r3, #16
 252              		.loc 1 183 64 view .LVU58
 253 0022 F60B     		lsrs	r6, r6, #15
 254              		.loc 1 183 43 view .LVU59
 255 0024 B240     		lsls	r2, r2, r6
 256              		.loc 1 183 20 view .LVU60
 257 0026 9443     		bics	r4, r2
 258 0028 C460     		str	r4, [r0, #12]
ARM GAS  /var/folders/ww/rl_brt8s5pq2m4_0c4ltm8d00000gn/T//cc6AYTBl.s 			page 9


 184:hk_lib/HK32F030/STD_LIB/src/hk32f0xx_gpio.c ****       GPIOx->PUPDR |= (((uint32_t)GPIO_InitStruct->GPIO_PuPd) << (pinpos * 2));
 259              		.loc 1 184 7 is_stmt 1 view .LVU61
 260              		.loc 1 184 20 is_stmt 0 view .LVU62
 261 002a C268     		ldr	r2, [r0, #12]
 262              		.loc 1 184 50 view .LVU63
 263 002c CC79     		ldrb	r4, [r1, #7]
 264              		.loc 1 184 63 view .LVU64
 265 002e AC40     		lsls	r4, r4, r5
 266              		.loc 1 184 20 view .LVU65
 267 0030 2243     		orrs	r2, r4
 268 0032 C260     		str	r2, [r0, #12]
 269              	.L18:
 152:hk_lib/HK32F030/STD_LIB/src/hk32f0xx_gpio.c ****   {
 270              		.loc 1 152 38 is_stmt 1 discriminator 2 view .LVU66
 152:hk_lib/HK32F030/STD_LIB/src/hk32f0xx_gpio.c ****   {
 271              		.loc 1 152 44 is_stmt 0 discriminator 2 view .LVU67
 272 0034 0133     		adds	r3, r3, #1
 273              	.LVL29:
 274              	.L17:
 152:hk_lib/HK32F030/STD_LIB/src/hk32f0xx_gpio.c ****   {
 275              		.loc 1 152 23 is_stmt 1 discriminator 1 view .LVU68
 152:hk_lib/HK32F030/STD_LIB/src/hk32f0xx_gpio.c ****   {
 276              		.loc 1 152 3 is_stmt 0 discriminator 1 view .LVU69
 277 0036 0F2B     		cmp	r3, #15
 278 0038 23D8     		bhi	.L21
 154:hk_lib/HK32F030/STD_LIB/src/hk32f0xx_gpio.c **** 
 279              		.loc 1 154 5 is_stmt 1 view .LVU70
 154:hk_lib/HK32F030/STD_LIB/src/hk32f0xx_gpio.c **** 
 280              		.loc 1 154 9 is_stmt 0 view .LVU71
 281 003a 0122     		movs	r2, #1
 282 003c 9A40     		lsls	r2, r2, r3
 283              	.LVL30:
 157:hk_lib/HK32F030/STD_LIB/src/hk32f0xx_gpio.c **** 
 284              		.loc 1 157 5 is_stmt 1 view .LVU72
 157:hk_lib/HK32F030/STD_LIB/src/hk32f0xx_gpio.c **** 
 285              		.loc 1 157 16 is_stmt 0 view .LVU73
 286 003e 0C68     		ldr	r4, [r1]
 287 0040 1440     		ands	r4, r2
 288              	.LVL31:
 159:hk_lib/HK32F030/STD_LIB/src/hk32f0xx_gpio.c ****     {
 289              		.loc 1 159 5 is_stmt 1 view .LVU74
 159:hk_lib/HK32F030/STD_LIB/src/hk32f0xx_gpio.c ****     {
 290              		.loc 1 159 8 is_stmt 0 view .LVU75
 291 0042 A242     		cmp	r2, r4
 292 0044 F6D1     		bne	.L18
 161:hk_lib/HK32F030/STD_LIB/src/hk32f0xx_gpio.c ****       {
 293              		.loc 1 161 7 is_stmt 1 view .LVU76
 161:hk_lib/HK32F030/STD_LIB/src/hk32f0xx_gpio.c ****       {
 294              		.loc 1 161 27 is_stmt 0 view .LVU77
 295 0046 0A79     		ldrb	r2, [r1, #4]
 296              	.LVL32:
 161:hk_lib/HK32F030/STD_LIB/src/hk32f0xx_gpio.c ****       {
 297              		.loc 1 161 57 view .LVU78
 298 0048 013A     		subs	r2, r2, #1
 299 004a D2B2     		uxtb	r2, r2
 161:hk_lib/HK32F030/STD_LIB/src/hk32f0xx_gpio.c ****       {
 300              		.loc 1 161 10 view .LVU79
ARM GAS  /var/folders/ww/rl_brt8s5pq2m4_0c4ltm8d00000gn/T//cc6AYTBl.s 			page 10


 301 004c 012A     		cmp	r2, #1
 302 004e DAD8     		bhi	.L19
 164:hk_lib/HK32F030/STD_LIB/src/hk32f0xx_gpio.c **** 
 303              		.loc 1 164 9 is_stmt 1 view .LVU80
 167:hk_lib/HK32F030/STD_LIB/src/hk32f0xx_gpio.c ****         GPIOx->OSPEEDR |= ((uint32_t)(GPIO_InitStruct->GPIO_Speed) << (pinpos * 2));
 304              		.loc 1 167 9 view .LVU81
 167:hk_lib/HK32F030/STD_LIB/src/hk32f0xx_gpio.c ****         GPIOx->OSPEEDR |= ((uint32_t)(GPIO_InitStruct->GPIO_Speed) << (pinpos * 2));
 305              		.loc 1 167 24 is_stmt 0 view .LVU82
 306 0050 8268     		ldr	r2, [r0, #8]
 167:hk_lib/HK32F030/STD_LIB/src/hk32f0xx_gpio.c ****         GPIOx->OSPEEDR |= ((uint32_t)(GPIO_InitStruct->GPIO_Speed) << (pinpos * 2));
 307              		.loc 1 167 63 view .LVU83
 308 0052 5D00     		lsls	r5, r3, #1
 167:hk_lib/HK32F030/STD_LIB/src/hk32f0xx_gpio.c ****         GPIOx->OSPEEDR |= ((uint32_t)(GPIO_InitStruct->GPIO_Speed) << (pinpos * 2));
 309              		.loc 1 167 52 view .LVU84
 310 0054 0324     		movs	r4, #3
 311              	.LVL33:
 167:hk_lib/HK32F030/STD_LIB/src/hk32f0xx_gpio.c ****         GPIOx->OSPEEDR |= ((uint32_t)(GPIO_InitStruct->GPIO_Speed) << (pinpos * 2));
 312              		.loc 1 167 52 view .LVU85
 313 0056 AC40     		lsls	r4, r4, r5
 167:hk_lib/HK32F030/STD_LIB/src/hk32f0xx_gpio.c ****         GPIOx->OSPEEDR |= ((uint32_t)(GPIO_InitStruct->GPIO_Speed) << (pinpos * 2));
 314              		.loc 1 167 24 view .LVU86
 315 0058 A243     		bics	r2, r4
 316 005a 8260     		str	r2, [r0, #8]
 317              	.LVL34:
 168:hk_lib/HK32F030/STD_LIB/src/hk32f0xx_gpio.c **** 
 318              		.loc 1 168 9 is_stmt 1 view .LVU87
 168:hk_lib/HK32F030/STD_LIB/src/hk32f0xx_gpio.c **** 
 319              		.loc 1 168 24 is_stmt 0 view .LVU88
 320 005c 8268     		ldr	r2, [r0, #8]
 168:hk_lib/HK32F030/STD_LIB/src/hk32f0xx_gpio.c **** 
 321              		.loc 1 168 54 view .LVU89
 322 005e 4C79     		ldrb	r4, [r1, #5]
 168:hk_lib/HK32F030/STD_LIB/src/hk32f0xx_gpio.c **** 
 323              		.loc 1 168 68 view .LVU90
 324 0060 AC40     		lsls	r4, r4, r5
 168:hk_lib/HK32F030/STD_LIB/src/hk32f0xx_gpio.c **** 
 325              		.loc 1 168 24 view .LVU91
 326 0062 2243     		orrs	r2, r4
 327 0064 8260     		str	r2, [r0, #8]
 171:hk_lib/HK32F030/STD_LIB/src/hk32f0xx_gpio.c **** 
 328              		.loc 1 171 9 is_stmt 1 view .LVU92
 174:hk_lib/HK32F030/STD_LIB/src/hk32f0xx_gpio.c ****         GPIOx->OTYPER |= (uint16_t)(((uint16_t)GPIO_InitStruct->GPIO_OType) << ((uint16_t)pinpos));
 329              		.loc 1 174 9 view .LVU93
 174:hk_lib/HK32F030/STD_LIB/src/hk32f0xx_gpio.c ****         GPIOx->OTYPER |= (uint16_t)(((uint16_t)GPIO_InitStruct->GPIO_OType) << ((uint16_t)pinpos));
 330              		.loc 1 174 23 is_stmt 0 view .LVU94
 331 0066 8288     		ldrh	r2, [r0, #4]
 174:hk_lib/HK32F030/STD_LIB/src/hk32f0xx_gpio.c ****         GPIOx->OTYPER |= (uint16_t)(((uint16_t)GPIO_InitStruct->GPIO_OType) << ((uint16_t)pinpos));
 332              		.loc 1 174 51 view .LVU95
 333 0068 1C04     		lsls	r4, r3, #16
 334 006a 240C     		lsrs	r4, r4, #16
 174:hk_lib/HK32F030/STD_LIB/src/hk32f0xx_gpio.c ****         GPIOx->OTYPER |= (uint16_t)(((uint16_t)GPIO_InitStruct->GPIO_OType) << ((uint16_t)pinpos));
 335              		.loc 1 174 47 view .LVU96
 336 006c 0125     		movs	r5, #1
 337              	.LVL35:
 174:hk_lib/HK32F030/STD_LIB/src/hk32f0xx_gpio.c ****         GPIOx->OTYPER |= (uint16_t)(((uint16_t)GPIO_InitStruct->GPIO_OType) << ((uint16_t)pinpos));
 338              		.loc 1 174 47 view .LVU97
 339 006e A540     		lsls	r5, r5, r4
ARM GAS  /var/folders/ww/rl_brt8s5pq2m4_0c4ltm8d00000gn/T//cc6AYTBl.s 			page 11


 340              	.LVL36:
 174:hk_lib/HK32F030/STD_LIB/src/hk32f0xx_gpio.c ****         GPIOx->OTYPER |= (uint16_t)(((uint16_t)GPIO_InitStruct->GPIO_OType) << ((uint16_t)pinpos));
 341              		.loc 1 174 23 view .LVU98
 342 0070 AA43     		bics	r2, r5
 343 0072 8280     		strh	r2, [r0, #4]
 175:hk_lib/HK32F030/STD_LIB/src/hk32f0xx_gpio.c ****       }
 344              		.loc 1 175 9 is_stmt 1 view .LVU99
 175:hk_lib/HK32F030/STD_LIB/src/hk32f0xx_gpio.c ****       }
 345              		.loc 1 175 23 is_stmt 0 view .LVU100
 346 0074 8588     		ldrh	r5, [r0, #4]
 175:hk_lib/HK32F030/STD_LIB/src/hk32f0xx_gpio.c ****       }
 347              		.loc 1 175 63 view .LVU101
 348 0076 8A79     		ldrb	r2, [r1, #6]
 175:hk_lib/HK32F030/STD_LIB/src/hk32f0xx_gpio.c ****       }
 349              		.loc 1 175 77 view .LVU102
 350 0078 A240     		lsls	r2, r2, r4
 175:hk_lib/HK32F030/STD_LIB/src/hk32f0xx_gpio.c ****       }
 351              		.loc 1 175 26 view .LVU103
 352 007a 92B2     		uxth	r2, r2
 175:hk_lib/HK32F030/STD_LIB/src/hk32f0xx_gpio.c ****       }
 353              		.loc 1 175 23 view .LVU104
 354 007c 2A43     		orrs	r2, r5
 355 007e 8280     		strh	r2, [r0, #4]
 356 0080 C1E7     		b	.L19
 357              	.LVL37:
 358              	.L21:
 185:hk_lib/HK32F030/STD_LIB/src/hk32f0xx_gpio.c ****     }
 186:hk_lib/HK32F030/STD_LIB/src/hk32f0xx_gpio.c ****   }
 187:hk_lib/HK32F030/STD_LIB/src/hk32f0xx_gpio.c **** }
 359              		.loc 1 187 1 view .LVU105
 360              		@ sp needed
 361 0082 70BD     		pop	{r4, r5, r6, pc}
 362              		.cfi_endproc
 363              	.LFE34:
 365              		.section	.text.GPIO_StructInit,"ax",%progbits
 366              		.align	1
 367              		.global	GPIO_StructInit
 368              		.syntax unified
 369              		.code	16
 370              		.thumb_func
 371              		.fpu softvfp
 373              	GPIO_StructInit:
 374              	.LVL38:
 375              	.LFB35:
 188:hk_lib/HK32F030/STD_LIB/src/hk32f0xx_gpio.c **** 
 189:hk_lib/HK32F030/STD_LIB/src/hk32f0xx_gpio.c **** /**
 190:hk_lib/HK32F030/STD_LIB/src/hk32f0xx_gpio.c ****   * @brief  Fills each GPIO_InitStruct member with its default value.
 191:hk_lib/HK32F030/STD_LIB/src/hk32f0xx_gpio.c ****   * @param  GPIO_InitStruct: pointer to a GPIO_InitTypeDef structure which will 
 192:hk_lib/HK32F030/STD_LIB/src/hk32f0xx_gpio.c ****   *         be initialized.
 193:hk_lib/HK32F030/STD_LIB/src/hk32f0xx_gpio.c ****   * @retval None
 194:hk_lib/HK32F030/STD_LIB/src/hk32f0xx_gpio.c ****   */
 195:hk_lib/HK32F030/STD_LIB/src/hk32f0xx_gpio.c **** void GPIO_StructInit(GPIO_InitTypeDef* GPIO_InitStruct)
 196:hk_lib/HK32F030/STD_LIB/src/hk32f0xx_gpio.c **** {
 376              		.loc 1 196 1 is_stmt 1 view -0
 377              		.cfi_startproc
 378              		@ args = 0, pretend = 0, frame = 0
 379              		@ frame_needed = 0, uses_anonymous_args = 0
ARM GAS  /var/folders/ww/rl_brt8s5pq2m4_0c4ltm8d00000gn/T//cc6AYTBl.s 			page 12


 380              		@ link register save eliminated.
 197:hk_lib/HK32F030/STD_LIB/src/hk32f0xx_gpio.c ****   /* Reset GPIO init structure parameters values */
 198:hk_lib/HK32F030/STD_LIB/src/hk32f0xx_gpio.c ****   GPIO_InitStruct->GPIO_Pin  = GPIO_Pin_All;
 381              		.loc 1 198 3 view .LVU107
 382              		.loc 1 198 30 is_stmt 0 view .LVU108
 383 0000 044B     		ldr	r3, .L23
 384 0002 0360     		str	r3, [r0]
 199:hk_lib/HK32F030/STD_LIB/src/hk32f0xx_gpio.c ****   GPIO_InitStruct->GPIO_Mode = GPIO_Mode_IN;
 385              		.loc 1 199 3 is_stmt 1 view .LVU109
 386              		.loc 1 199 30 is_stmt 0 view .LVU110
 387 0004 0023     		movs	r3, #0
 388 0006 0371     		strb	r3, [r0, #4]
 200:hk_lib/HK32F030/STD_LIB/src/hk32f0xx_gpio.c ****   GPIO_InitStruct->GPIO_Speed = GPIO_Speed_Level_2;
 389              		.loc 1 200 3 is_stmt 1 view .LVU111
 390              		.loc 1 200 31 is_stmt 0 view .LVU112
 391 0008 0122     		movs	r2, #1
 392 000a 4271     		strb	r2, [r0, #5]
 201:hk_lib/HK32F030/STD_LIB/src/hk32f0xx_gpio.c ****   GPIO_InitStruct->GPIO_OType = GPIO_OType_PP;
 393              		.loc 1 201 3 is_stmt 1 view .LVU113
 394              		.loc 1 201 31 is_stmt 0 view .LVU114
 395 000c 8371     		strb	r3, [r0, #6]
 202:hk_lib/HK32F030/STD_LIB/src/hk32f0xx_gpio.c ****   GPIO_InitStruct->GPIO_PuPd = GPIO_PuPd_NOPULL;
 396              		.loc 1 202 3 is_stmt 1 view .LVU115
 397              		.loc 1 202 30 is_stmt 0 view .LVU116
 398 000e C371     		strb	r3, [r0, #7]
 203:hk_lib/HK32F030/STD_LIB/src/hk32f0xx_gpio.c **** }
 399              		.loc 1 203 1 view .LVU117
 400              		@ sp needed
 401 0010 7047     		bx	lr
 402              	.L24:
 403 0012 C046     		.align	2
 404              	.L23:
 405 0014 FFFF0000 		.word	65535
 406              		.cfi_endproc
 407              	.LFE35:
 409              		.section	.text.GPIO_PinLockConfig,"ax",%progbits
 410              		.align	1
 411              		.global	GPIO_PinLockConfig
 412              		.syntax unified
 413              		.code	16
 414              		.thumb_func
 415              		.fpu softvfp
 417              	GPIO_PinLockConfig:
 418              	.LVL39:
 419              	.LFB36:
 204:hk_lib/HK32F030/STD_LIB/src/hk32f0xx_gpio.c **** 
 205:hk_lib/HK32F030/STD_LIB/src/hk32f0xx_gpio.c **** /**
 206:hk_lib/HK32F030/STD_LIB/src/hk32f0xx_gpio.c ****   * @brief  Locks GPIO Pins configuration registers.
 207:hk_lib/HK32F030/STD_LIB/src/hk32f0xx_gpio.c ****   * @note   The locked registers are GPIOx_MODER, GPIOx_OTYPER, GPIOx_OSPEEDR,
 208:hk_lib/HK32F030/STD_LIB/src/hk32f0xx_gpio.c ****   *         GPIOx_PUPDR, GPIOx_AFRL and GPIOx_AFRH.
 209:hk_lib/HK32F030/STD_LIB/src/hk32f0xx_gpio.c ****   * @note   The configuration of the locked GPIO pins can no longer be modified
 210:hk_lib/HK32F030/STD_LIB/src/hk32f0xx_gpio.c ****   *         until the next device reset.
 211:hk_lib/HK32F030/STD_LIB/src/hk32f0xx_gpio.c ****   * @param  GPIOx: where x can be (A or B) to select the GPIO peripheral.
 212:hk_lib/HK32F030/STD_LIB/src/hk32f0xx_gpio.c ****   * @param  GPIO_Pin: specifies the port bit to be written.
 213:hk_lib/HK32F030/STD_LIB/src/hk32f0xx_gpio.c ****   *          This parameter can be any combination of GPIO_Pin_x where x can be (0..15).
 214:hk_lib/HK32F030/STD_LIB/src/hk32f0xx_gpio.c ****   * @retval None
 215:hk_lib/HK32F030/STD_LIB/src/hk32f0xx_gpio.c ****   */
ARM GAS  /var/folders/ww/rl_brt8s5pq2m4_0c4ltm8d00000gn/T//cc6AYTBl.s 			page 13


 216:hk_lib/HK32F030/STD_LIB/src/hk32f0xx_gpio.c **** void GPIO_PinLockConfig(GPIO_TypeDef* GPIOx, uint16_t GPIO_Pin)
 217:hk_lib/HK32F030/STD_LIB/src/hk32f0xx_gpio.c **** {
 420              		.loc 1 217 1 is_stmt 1 view -0
 421              		.cfi_startproc
 422              		@ args = 0, pretend = 0, frame = 8
 423              		@ frame_needed = 0, uses_anonymous_args = 0
 424              		@ link register save eliminated.
 425              		.loc 1 217 1 is_stmt 0 view .LVU119
 426 0000 82B0     		sub	sp, sp, #8
 427              	.LCFI2:
 428              		.cfi_def_cfa_offset 8
 218:hk_lib/HK32F030/STD_LIB/src/hk32f0xx_gpio.c ****   __IO uint32_t tmp = 0x00010000;
 429              		.loc 1 218 3 is_stmt 1 view .LVU120
 430              		.loc 1 218 17 is_stmt 0 view .LVU121
 431 0002 8023     		movs	r3, #128
 432 0004 5B02     		lsls	r3, r3, #9
 433 0006 0193     		str	r3, [sp, #4]
 219:hk_lib/HK32F030/STD_LIB/src/hk32f0xx_gpio.c **** 
 220:hk_lib/HK32F030/STD_LIB/src/hk32f0xx_gpio.c ****   /* Check the parameters */
 221:hk_lib/HK32F030/STD_LIB/src/hk32f0xx_gpio.c ****   assert_param(IS_GPIO_LIST_PERIPH(GPIOx));
 434              		.loc 1 221 3 is_stmt 1 view .LVU122
 222:hk_lib/HK32F030/STD_LIB/src/hk32f0xx_gpio.c ****   assert_param(IS_GPIO_PIN(GPIO_Pin));
 435              		.loc 1 222 3 view .LVU123
 223:hk_lib/HK32F030/STD_LIB/src/hk32f0xx_gpio.c **** 
 224:hk_lib/HK32F030/STD_LIB/src/hk32f0xx_gpio.c ****   tmp |= GPIO_Pin;
 436              		.loc 1 224 3 view .LVU124
 437              		.loc 1 224 7 is_stmt 0 view .LVU125
 438 0008 019B     		ldr	r3, [sp, #4]
 439 000a 0B43     		orrs	r3, r1
 440 000c 0193     		str	r3, [sp, #4]
 225:hk_lib/HK32F030/STD_LIB/src/hk32f0xx_gpio.c ****   /* Set LCKK bit */
 226:hk_lib/HK32F030/STD_LIB/src/hk32f0xx_gpio.c ****   GPIOx->LCKR = tmp;
 441              		.loc 1 226 3 is_stmt 1 view .LVU126
 442              		.loc 1 226 15 is_stmt 0 view .LVU127
 443 000e 019B     		ldr	r3, [sp, #4]
 444 0010 C361     		str	r3, [r0, #28]
 227:hk_lib/HK32F030/STD_LIB/src/hk32f0xx_gpio.c ****   /* Reset LCKK bit */
 228:hk_lib/HK32F030/STD_LIB/src/hk32f0xx_gpio.c ****   GPIOx->LCKR =  GPIO_Pin;
 445              		.loc 1 228 3 is_stmt 1 view .LVU128
 446              		.loc 1 228 15 is_stmt 0 view .LVU129
 447 0012 C161     		str	r1, [r0, #28]
 229:hk_lib/HK32F030/STD_LIB/src/hk32f0xx_gpio.c ****   /* Set LCKK bit */
 230:hk_lib/HK32F030/STD_LIB/src/hk32f0xx_gpio.c ****   GPIOx->LCKR = tmp;
 448              		.loc 1 230 3 is_stmt 1 view .LVU130
 449              		.loc 1 230 15 is_stmt 0 view .LVU131
 450 0014 019B     		ldr	r3, [sp, #4]
 451 0016 C361     		str	r3, [r0, #28]
 231:hk_lib/HK32F030/STD_LIB/src/hk32f0xx_gpio.c ****   /* Read LCKK bit */
 232:hk_lib/HK32F030/STD_LIB/src/hk32f0xx_gpio.c ****   tmp = GPIOx->LCKR;
 452              		.loc 1 232 3 is_stmt 1 view .LVU132
 453              		.loc 1 232 14 is_stmt 0 view .LVU133
 454 0018 C369     		ldr	r3, [r0, #28]
 455              		.loc 1 232 7 view .LVU134
 456 001a 0193     		str	r3, [sp, #4]
 233:hk_lib/HK32F030/STD_LIB/src/hk32f0xx_gpio.c ****   /* Read LCKK bit */
 234:hk_lib/HK32F030/STD_LIB/src/hk32f0xx_gpio.c ****   tmp = GPIOx->LCKR;
 457              		.loc 1 234 3 is_stmt 1 view .LVU135
ARM GAS  /var/folders/ww/rl_brt8s5pq2m4_0c4ltm8d00000gn/T//cc6AYTBl.s 			page 14


 458              		.loc 1 234 14 is_stmt 0 view .LVU136
 459 001c C369     		ldr	r3, [r0, #28]
 460              		.loc 1 234 7 view .LVU137
 461 001e 0193     		str	r3, [sp, #4]
 235:hk_lib/HK32F030/STD_LIB/src/hk32f0xx_gpio.c **** }
 462              		.loc 1 235 1 view .LVU138
 463 0020 02B0     		add	sp, sp, #8
 464              		@ sp needed
 465 0022 7047     		bx	lr
 466              		.cfi_endproc
 467              	.LFE36:
 469              		.section	.text.GPIO_ReadInputDataBit,"ax",%progbits
 470              		.align	1
 471              		.global	GPIO_ReadInputDataBit
 472              		.syntax unified
 473              		.code	16
 474              		.thumb_func
 475              		.fpu softvfp
 477              	GPIO_ReadInputDataBit:
 478              	.LVL40:
 479              	.LFB37:
 236:hk_lib/HK32F030/STD_LIB/src/hk32f0xx_gpio.c **** 
 237:hk_lib/HK32F030/STD_LIB/src/hk32f0xx_gpio.c **** /**
 238:hk_lib/HK32F030/STD_LIB/src/hk32f0xx_gpio.c ****   * @}
 239:hk_lib/HK32F030/STD_LIB/src/hk32f0xx_gpio.c ****   */
 240:hk_lib/HK32F030/STD_LIB/src/hk32f0xx_gpio.c **** 
 241:hk_lib/HK32F030/STD_LIB/src/hk32f0xx_gpio.c **** /** @defgroup GPIO_Group2 GPIO Read and Write
 242:hk_lib/HK32F030/STD_LIB/src/hk32f0xx_gpio.c ****  *  @brief   GPIO Read and Write
 243:hk_lib/HK32F030/STD_LIB/src/hk32f0xx_gpio.c ****  *
 244:hk_lib/HK32F030/STD_LIB/src/hk32f0xx_gpio.c **** @verbatim   
 245:hk_lib/HK32F030/STD_LIB/src/hk32f0xx_gpio.c ****  ===============================================================================
 246:hk_lib/HK32F030/STD_LIB/src/hk32f0xx_gpio.c ****                       ##### GPIO Read and Write #####
 247:hk_lib/HK32F030/STD_LIB/src/hk32f0xx_gpio.c ****  ===============================================================================  
 248:hk_lib/HK32F030/STD_LIB/src/hk32f0xx_gpio.c **** 
 249:hk_lib/HK32F030/STD_LIB/src/hk32f0xx_gpio.c **** @endverbatim
 250:hk_lib/HK32F030/STD_LIB/src/hk32f0xx_gpio.c ****   * @{
 251:hk_lib/HK32F030/STD_LIB/src/hk32f0xx_gpio.c ****   */
 252:hk_lib/HK32F030/STD_LIB/src/hk32f0xx_gpio.c **** 
 253:hk_lib/HK32F030/STD_LIB/src/hk32f0xx_gpio.c **** /**
 254:hk_lib/HK32F030/STD_LIB/src/hk32f0xx_gpio.c ****   * @brief  Reads the specified input port pin.
 255:hk_lib/HK32F030/STD_LIB/src/hk32f0xx_gpio.c ****   * @param  GPIOx: where x can be (A, B, C, D, E or F) to select the GPIO peripheral.
 256:hk_lib/HK32F030/STD_LIB/src/hk32f0xx_gpio.c ****   * @note   GPIOE is available only for HK32F072.
 257:hk_lib/HK32F030/STD_LIB/src/hk32f0xx_gpio.c ****   * @note   GPIOD is not available for HK32F031.   
 258:hk_lib/HK32F030/STD_LIB/src/hk32f0xx_gpio.c ****   * @param  GPIO_Pin: specifies the port bit to read.
 259:hk_lib/HK32F030/STD_LIB/src/hk32f0xx_gpio.c ****   * @note   This parameter can be GPIO_Pin_x where x can be:
 260:hk_lib/HK32F030/STD_LIB/src/hk32f0xx_gpio.c ****   *         For HK32F051 and HK32F030: (0..15) for GPIOA, GPIOB, GPIOC, (2) for GPIOD and (0..1, 4.
 261:hk_lib/HK32F030/STD_LIB/src/hk32f0xx_gpio.c ****   *         For HK32F072: (0..15) for GPIOA, GPIOB, GPIOC, GPIOD, GPIOE, (0..10) for GPIOF.
 262:hk_lib/HK32F030/STD_LIB/src/hk32f0xx_gpio.c ****   *         For HK32F031: (0..15) for GPIOA, GPIOB, (13..15) for GPIOC and (0..1, 6..7) for GPIOF. 
 263:hk_lib/HK32F030/STD_LIB/src/hk32f0xx_gpio.c ****   * @retval The input port pin value.
 264:hk_lib/HK32F030/STD_LIB/src/hk32f0xx_gpio.c ****   */
 265:hk_lib/HK32F030/STD_LIB/src/hk32f0xx_gpio.c **** uint8_t GPIO_ReadInputDataBit(GPIO_TypeDef* GPIOx, uint16_t GPIO_Pin)
 266:hk_lib/HK32F030/STD_LIB/src/hk32f0xx_gpio.c **** {
 480              		.loc 1 266 1 is_stmt 1 view -0
 481              		.cfi_startproc
 482              		@ args = 0, pretend = 0, frame = 0
 483              		@ frame_needed = 0, uses_anonymous_args = 0
 484              		@ link register save eliminated.
ARM GAS  /var/folders/ww/rl_brt8s5pq2m4_0c4ltm8d00000gn/T//cc6AYTBl.s 			page 15


 267:hk_lib/HK32F030/STD_LIB/src/hk32f0xx_gpio.c ****   uint8_t bitstatus = 0x00;
 485              		.loc 1 267 3 view .LVU140
 268:hk_lib/HK32F030/STD_LIB/src/hk32f0xx_gpio.c **** 
 269:hk_lib/HK32F030/STD_LIB/src/hk32f0xx_gpio.c ****   /* Check the parameters */
 270:hk_lib/HK32F030/STD_LIB/src/hk32f0xx_gpio.c ****   assert_param(IS_GPIO_ALL_PERIPH(GPIOx));
 486              		.loc 1 270 3 view .LVU141
 271:hk_lib/HK32F030/STD_LIB/src/hk32f0xx_gpio.c ****   assert_param(IS_GET_GPIO_PIN(GPIO_Pin));
 487              		.loc 1 271 3 view .LVU142
 272:hk_lib/HK32F030/STD_LIB/src/hk32f0xx_gpio.c **** 
 273:hk_lib/HK32F030/STD_LIB/src/hk32f0xx_gpio.c ****   if ((GPIOx->IDR & GPIO_Pin) != (uint32_t)Bit_RESET)
 488              		.loc 1 273 3 view .LVU143
 489              		.loc 1 273 13 is_stmt 0 view .LVU144
 490 0000 038A     		ldrh	r3, [r0, #16]
 491              		.loc 1 273 6 view .LVU145
 492 0002 0B42     		tst	r3, r1
 493 0004 01D0     		beq	.L28
 274:hk_lib/HK32F030/STD_LIB/src/hk32f0xx_gpio.c ****   {
 275:hk_lib/HK32F030/STD_LIB/src/hk32f0xx_gpio.c ****     bitstatus = (uint8_t)Bit_SET;
 494              		.loc 1 275 15 view .LVU146
 495 0006 0120     		movs	r0, #1
 496              	.LVL41:
 497              	.L27:
 276:hk_lib/HK32F030/STD_LIB/src/hk32f0xx_gpio.c ****   }
 277:hk_lib/HK32F030/STD_LIB/src/hk32f0xx_gpio.c ****   else
 278:hk_lib/HK32F030/STD_LIB/src/hk32f0xx_gpio.c ****   {
 279:hk_lib/HK32F030/STD_LIB/src/hk32f0xx_gpio.c ****     bitstatus = (uint8_t)Bit_RESET;
 280:hk_lib/HK32F030/STD_LIB/src/hk32f0xx_gpio.c ****   }
 281:hk_lib/HK32F030/STD_LIB/src/hk32f0xx_gpio.c ****   return bitstatus;
 498              		.loc 1 281 3 is_stmt 1 view .LVU147
 282:hk_lib/HK32F030/STD_LIB/src/hk32f0xx_gpio.c **** }
 499              		.loc 1 282 1 is_stmt 0 view .LVU148
 500              		@ sp needed
 501 0008 7047     		bx	lr
 502              	.LVL42:
 503              	.L28:
 279:hk_lib/HK32F030/STD_LIB/src/hk32f0xx_gpio.c ****   }
 504              		.loc 1 279 15 view .LVU149
 505 000a 0020     		movs	r0, #0
 506              	.LVL43:
 279:hk_lib/HK32F030/STD_LIB/src/hk32f0xx_gpio.c ****   }
 507              		.loc 1 279 15 view .LVU150
 508 000c FCE7     		b	.L27
 509              		.cfi_endproc
 510              	.LFE37:
 512              		.section	.text.GPIO_ReadInputData,"ax",%progbits
 513              		.align	1
 514              		.global	GPIO_ReadInputData
 515              		.syntax unified
 516              		.code	16
 517              		.thumb_func
 518              		.fpu softvfp
 520              	GPIO_ReadInputData:
 521              	.LVL44:
 522              	.LFB38:
 283:hk_lib/HK32F030/STD_LIB/src/hk32f0xx_gpio.c **** 
 284:hk_lib/HK32F030/STD_LIB/src/hk32f0xx_gpio.c **** /**
 285:hk_lib/HK32F030/STD_LIB/src/hk32f0xx_gpio.c ****   * @brief  Reads the specified input port pin.
ARM GAS  /var/folders/ww/rl_brt8s5pq2m4_0c4ltm8d00000gn/T//cc6AYTBl.s 			page 16


 286:hk_lib/HK32F030/STD_LIB/src/hk32f0xx_gpio.c ****   * @param  GPIOx: where x can be (A, B, C, D, E or F) to select the GPIO peripheral.
 287:hk_lib/HK32F030/STD_LIB/src/hk32f0xx_gpio.c ****   * @note   GPIOE is available only for HK32F072.
 288:hk_lib/HK32F030/STD_LIB/src/hk32f0xx_gpio.c ****   * @note   GPIOD is not available for HK32F031.   
 289:hk_lib/HK32F030/STD_LIB/src/hk32f0xx_gpio.c ****   * @retval The input port pin value.
 290:hk_lib/HK32F030/STD_LIB/src/hk32f0xx_gpio.c ****   */
 291:hk_lib/HK32F030/STD_LIB/src/hk32f0xx_gpio.c **** uint16_t GPIO_ReadInputData(GPIO_TypeDef* GPIOx)
 292:hk_lib/HK32F030/STD_LIB/src/hk32f0xx_gpio.c **** {
 523              		.loc 1 292 1 is_stmt 1 view -0
 524              		.cfi_startproc
 525              		@ args = 0, pretend = 0, frame = 0
 526              		@ frame_needed = 0, uses_anonymous_args = 0
 527              		@ link register save eliminated.
 293:hk_lib/HK32F030/STD_LIB/src/hk32f0xx_gpio.c ****   /* Check the parameters */
 294:hk_lib/HK32F030/STD_LIB/src/hk32f0xx_gpio.c ****   assert_param(IS_GPIO_ALL_PERIPH(GPIOx));
 528              		.loc 1 294 3 view .LVU152
 295:hk_lib/HK32F030/STD_LIB/src/hk32f0xx_gpio.c **** 
 296:hk_lib/HK32F030/STD_LIB/src/hk32f0xx_gpio.c ****   return ((uint16_t)GPIOx->IDR);
 529              		.loc 1 296 3 view .LVU153
 530              		.loc 1 296 11 is_stmt 0 view .LVU154
 531 0000 008A     		ldrh	r0, [r0, #16]
 532              	.LVL45:
 533              		.loc 1 296 11 view .LVU155
 534 0002 80B2     		uxth	r0, r0
 297:hk_lib/HK32F030/STD_LIB/src/hk32f0xx_gpio.c **** }
 535              		.loc 1 297 1 view .LVU156
 536              		@ sp needed
 537 0004 7047     		bx	lr
 538              		.cfi_endproc
 539              	.LFE38:
 541              		.section	.text.GPIO_ReadOutputDataBit,"ax",%progbits
 542              		.align	1
 543              		.global	GPIO_ReadOutputDataBit
 544              		.syntax unified
 545              		.code	16
 546              		.thumb_func
 547              		.fpu softvfp
 549              	GPIO_ReadOutputDataBit:
 550              	.LVL46:
 551              	.LFB39:
 298:hk_lib/HK32F030/STD_LIB/src/hk32f0xx_gpio.c **** 
 299:hk_lib/HK32F030/STD_LIB/src/hk32f0xx_gpio.c **** /**
 300:hk_lib/HK32F030/STD_LIB/src/hk32f0xx_gpio.c ****   * @brief  Reads the specified output data port bit.
 301:hk_lib/HK32F030/STD_LIB/src/hk32f0xx_gpio.c ****   * @param  GPIOx: where x can be (A, B, C, D, E or F) to select the GPIO peripheral.
 302:hk_lib/HK32F030/STD_LIB/src/hk32f0xx_gpio.c ****   * @note   GPIOE is available only for HK32F072.
 303:hk_lib/HK32F030/STD_LIB/src/hk32f0xx_gpio.c ****   * @note   GPIOD is not available for HK32F031.   
 304:hk_lib/HK32F030/STD_LIB/src/hk32f0xx_gpio.c ****   * @param  GPIO_Pin: Specifies the port bit to read.
 305:hk_lib/HK32F030/STD_LIB/src/hk32f0xx_gpio.c ****   * @note   This parameter can be GPIO_Pin_x where x can be:
 306:hk_lib/HK32F030/STD_LIB/src/hk32f0xx_gpio.c ****   *         For HK32F051 and HK32F030: (0..15) for GPIOA, GPIOB, GPIOC, (2) for GPIOD and (0..1, 4.
 307:hk_lib/HK32F030/STD_LIB/src/hk32f0xx_gpio.c ****   *         For HK32F072: (0..15) for GPIOA, GPIOB, GPIOC, GPIOD, GPIOE, (0..10) for GPIOF.
 308:hk_lib/HK32F030/STD_LIB/src/hk32f0xx_gpio.c ****   *         For HK32F031: (0..15) for GPIOA, GPIOB, (13..15) for GPIOC and (0..1, 6..7) for GPIOF. 
 309:hk_lib/HK32F030/STD_LIB/src/hk32f0xx_gpio.c ****   * @retval The output port pin value.
 310:hk_lib/HK32F030/STD_LIB/src/hk32f0xx_gpio.c ****   */
 311:hk_lib/HK32F030/STD_LIB/src/hk32f0xx_gpio.c **** uint8_t GPIO_ReadOutputDataBit(GPIO_TypeDef* GPIOx, uint16_t GPIO_Pin)
 312:hk_lib/HK32F030/STD_LIB/src/hk32f0xx_gpio.c **** {
 552              		.loc 1 312 1 is_stmt 1 view -0
 553              		.cfi_startproc
 554              		@ args = 0, pretend = 0, frame = 0
ARM GAS  /var/folders/ww/rl_brt8s5pq2m4_0c4ltm8d00000gn/T//cc6AYTBl.s 			page 17


 555              		@ frame_needed = 0, uses_anonymous_args = 0
 556              		@ link register save eliminated.
 313:hk_lib/HK32F030/STD_LIB/src/hk32f0xx_gpio.c ****   uint8_t bitstatus = 0x00;
 557              		.loc 1 313 3 view .LVU158
 314:hk_lib/HK32F030/STD_LIB/src/hk32f0xx_gpio.c **** 
 315:hk_lib/HK32F030/STD_LIB/src/hk32f0xx_gpio.c ****   /* Check the parameters */
 316:hk_lib/HK32F030/STD_LIB/src/hk32f0xx_gpio.c ****   assert_param(IS_GPIO_ALL_PERIPH(GPIOx));
 558              		.loc 1 316 3 view .LVU159
 317:hk_lib/HK32F030/STD_LIB/src/hk32f0xx_gpio.c ****   assert_param(IS_GET_GPIO_PIN(GPIO_Pin));
 559              		.loc 1 317 3 view .LVU160
 318:hk_lib/HK32F030/STD_LIB/src/hk32f0xx_gpio.c **** 
 319:hk_lib/HK32F030/STD_LIB/src/hk32f0xx_gpio.c ****   if ((GPIOx->ODR & GPIO_Pin) != (uint32_t)Bit_RESET)
 560              		.loc 1 319 3 view .LVU161
 561              		.loc 1 319 13 is_stmt 0 view .LVU162
 562 0000 838A     		ldrh	r3, [r0, #20]
 563              		.loc 1 319 6 view .LVU163
 564 0002 0B42     		tst	r3, r1
 565 0004 01D0     		beq	.L32
 320:hk_lib/HK32F030/STD_LIB/src/hk32f0xx_gpio.c ****   {
 321:hk_lib/HK32F030/STD_LIB/src/hk32f0xx_gpio.c ****     bitstatus = (uint8_t)Bit_SET;
 566              		.loc 1 321 15 view .LVU164
 567 0006 0120     		movs	r0, #1
 568              	.LVL47:
 569              	.L31:
 322:hk_lib/HK32F030/STD_LIB/src/hk32f0xx_gpio.c ****   }
 323:hk_lib/HK32F030/STD_LIB/src/hk32f0xx_gpio.c ****   else
 324:hk_lib/HK32F030/STD_LIB/src/hk32f0xx_gpio.c ****   {
 325:hk_lib/HK32F030/STD_LIB/src/hk32f0xx_gpio.c ****     bitstatus = (uint8_t)Bit_RESET;
 326:hk_lib/HK32F030/STD_LIB/src/hk32f0xx_gpio.c ****   }
 327:hk_lib/HK32F030/STD_LIB/src/hk32f0xx_gpio.c ****   return bitstatus;
 570              		.loc 1 327 3 is_stmt 1 view .LVU165
 328:hk_lib/HK32F030/STD_LIB/src/hk32f0xx_gpio.c **** }
 571              		.loc 1 328 1 is_stmt 0 view .LVU166
 572              		@ sp needed
 573 0008 7047     		bx	lr
 574              	.LVL48:
 575              	.L32:
 325:hk_lib/HK32F030/STD_LIB/src/hk32f0xx_gpio.c ****   }
 576              		.loc 1 325 15 view .LVU167
 577 000a 0020     		movs	r0, #0
 578              	.LVL49:
 325:hk_lib/HK32F030/STD_LIB/src/hk32f0xx_gpio.c ****   }
 579              		.loc 1 325 15 view .LVU168
 580 000c FCE7     		b	.L31
 581              		.cfi_endproc
 582              	.LFE39:
 584              		.section	.text.GPIO_ReadOutputData,"ax",%progbits
 585              		.align	1
 586              		.global	GPIO_ReadOutputData
 587              		.syntax unified
 588              		.code	16
 589              		.thumb_func
 590              		.fpu softvfp
 592              	GPIO_ReadOutputData:
 593              	.LVL50:
 594              	.LFB40:
 329:hk_lib/HK32F030/STD_LIB/src/hk32f0xx_gpio.c **** 
ARM GAS  /var/folders/ww/rl_brt8s5pq2m4_0c4ltm8d00000gn/T//cc6AYTBl.s 			page 18


 330:hk_lib/HK32F030/STD_LIB/src/hk32f0xx_gpio.c **** /**
 331:hk_lib/HK32F030/STD_LIB/src/hk32f0xx_gpio.c ****   * @brief  Reads the specified GPIO output data port.
 332:hk_lib/HK32F030/STD_LIB/src/hk32f0xx_gpio.c ****   * @param  GPIOx: where x can be (A, B, C, D, E or F) to select the GPIO peripheral.
 333:hk_lib/HK32F030/STD_LIB/src/hk32f0xx_gpio.c ****   * @note   GPIOE is available only for HK32F072.
 334:hk_lib/HK32F030/STD_LIB/src/hk32f0xx_gpio.c ****   * @note   GPIOD is not available for HK32F031.    
 335:hk_lib/HK32F030/STD_LIB/src/hk32f0xx_gpio.c ****   * @retval GPIO output data port value.
 336:hk_lib/HK32F030/STD_LIB/src/hk32f0xx_gpio.c ****   */
 337:hk_lib/HK32F030/STD_LIB/src/hk32f0xx_gpio.c **** uint16_t GPIO_ReadOutputData(GPIO_TypeDef* GPIOx)
 338:hk_lib/HK32F030/STD_LIB/src/hk32f0xx_gpio.c **** {
 595              		.loc 1 338 1 is_stmt 1 view -0
 596              		.cfi_startproc
 597              		@ args = 0, pretend = 0, frame = 0
 598              		@ frame_needed = 0, uses_anonymous_args = 0
 599              		@ link register save eliminated.
 339:hk_lib/HK32F030/STD_LIB/src/hk32f0xx_gpio.c ****   /* Check the parameters */
 340:hk_lib/HK32F030/STD_LIB/src/hk32f0xx_gpio.c ****   assert_param(IS_GPIO_ALL_PERIPH(GPIOx));
 600              		.loc 1 340 3 view .LVU170
 341:hk_lib/HK32F030/STD_LIB/src/hk32f0xx_gpio.c **** 
 342:hk_lib/HK32F030/STD_LIB/src/hk32f0xx_gpio.c ****   return ((uint16_t)GPIOx->ODR);
 601              		.loc 1 342 3 view .LVU171
 602              		.loc 1 342 11 is_stmt 0 view .LVU172
 603 0000 808A     		ldrh	r0, [r0, #20]
 604              	.LVL51:
 605              		.loc 1 342 11 view .LVU173
 606 0002 80B2     		uxth	r0, r0
 343:hk_lib/HK32F030/STD_LIB/src/hk32f0xx_gpio.c **** }
 607              		.loc 1 343 1 view .LVU174
 608              		@ sp needed
 609 0004 7047     		bx	lr
 610              		.cfi_endproc
 611              	.LFE40:
 613              		.section	.text.GPIO_SetBits,"ax",%progbits
 614              		.align	1
 615              		.global	GPIO_SetBits
 616              		.syntax unified
 617              		.code	16
 618              		.thumb_func
 619              		.fpu softvfp
 621              	GPIO_SetBits:
 622              	.LVL52:
 623              	.LFB41:
 344:hk_lib/HK32F030/STD_LIB/src/hk32f0xx_gpio.c **** 
 345:hk_lib/HK32F030/STD_LIB/src/hk32f0xx_gpio.c **** /**
 346:hk_lib/HK32F030/STD_LIB/src/hk32f0xx_gpio.c ****   * @brief  Sets the selected data port bits.
 347:hk_lib/HK32F030/STD_LIB/src/hk32f0xx_gpio.c ****   * @param  GPIOx: where x can be (A, B, C, D, E or F) to select the GPIO peripheral.
 348:hk_lib/HK32F030/STD_LIB/src/hk32f0xx_gpio.c ****   * @note   GPIOE is available only for HK32F072.
 349:hk_lib/HK32F030/STD_LIB/src/hk32f0xx_gpio.c ****   * @note   GPIOD is not available for HK32F031.    
 350:hk_lib/HK32F030/STD_LIB/src/hk32f0xx_gpio.c ****   * @param  GPIO_Pin: specifies the port bits to be written.
 351:hk_lib/HK32F030/STD_LIB/src/hk32f0xx_gpio.c ****   * @note   This parameter can be GPIO_Pin_x where x can be:
 352:hk_lib/HK32F030/STD_LIB/src/hk32f0xx_gpio.c ****   *         For HK32F051 and HK32F030: (0..15) for GPIOA, GPIOB, GPIOC, (2) for GPIOD and (0..1, 4.
 353:hk_lib/HK32F030/STD_LIB/src/hk32f0xx_gpio.c ****   *         For HK32F072: (0..15) for GPIOA, GPIOB, GPIOC, GPIOD, GPIOE, (0..10) for GPIOF.
 354:hk_lib/HK32F030/STD_LIB/src/hk32f0xx_gpio.c ****   *         For HK32F031: (0..15) for GPIOA, GPIOB, (13..15) for GPIOC and (0..1, 6..7) for GPIOF. 
 355:hk_lib/HK32F030/STD_LIB/src/hk32f0xx_gpio.c ****   * @retval None
 356:hk_lib/HK32F030/STD_LIB/src/hk32f0xx_gpio.c ****   */
 357:hk_lib/HK32F030/STD_LIB/src/hk32f0xx_gpio.c **** void GPIO_SetBits(GPIO_TypeDef* GPIOx, uint16_t GPIO_Pin)
 358:hk_lib/HK32F030/STD_LIB/src/hk32f0xx_gpio.c **** {
 624              		.loc 1 358 1 is_stmt 1 view -0
ARM GAS  /var/folders/ww/rl_brt8s5pq2m4_0c4ltm8d00000gn/T//cc6AYTBl.s 			page 19


 625              		.cfi_startproc
 626              		@ args = 0, pretend = 0, frame = 0
 627              		@ frame_needed = 0, uses_anonymous_args = 0
 628              		@ link register save eliminated.
 359:hk_lib/HK32F030/STD_LIB/src/hk32f0xx_gpio.c ****   /* Check the parameters */
 360:hk_lib/HK32F030/STD_LIB/src/hk32f0xx_gpio.c ****   assert_param(IS_GPIO_ALL_PERIPH(GPIOx));
 629              		.loc 1 360 3 view .LVU176
 361:hk_lib/HK32F030/STD_LIB/src/hk32f0xx_gpio.c ****   assert_param(IS_GPIO_PIN(GPIO_Pin));
 630              		.loc 1 361 3 view .LVU177
 362:hk_lib/HK32F030/STD_LIB/src/hk32f0xx_gpio.c **** 
 363:hk_lib/HK32F030/STD_LIB/src/hk32f0xx_gpio.c ****   GPIOx->BSRR = GPIO_Pin;
 631              		.loc 1 363 3 view .LVU178
 632              		.loc 1 363 15 is_stmt 0 view .LVU179
 633 0000 8161     		str	r1, [r0, #24]
 364:hk_lib/HK32F030/STD_LIB/src/hk32f0xx_gpio.c **** }
 634              		.loc 1 364 1 view .LVU180
 635              		@ sp needed
 636 0002 7047     		bx	lr
 637              		.cfi_endproc
 638              	.LFE41:
 640              		.section	.text.GPIO_ResetBits,"ax",%progbits
 641              		.align	1
 642              		.global	GPIO_ResetBits
 643              		.syntax unified
 644              		.code	16
 645              		.thumb_func
 646              		.fpu softvfp
 648              	GPIO_ResetBits:
 649              	.LVL53:
 650              	.LFB42:
 365:hk_lib/HK32F030/STD_LIB/src/hk32f0xx_gpio.c **** 
 366:hk_lib/HK32F030/STD_LIB/src/hk32f0xx_gpio.c **** /**
 367:hk_lib/HK32F030/STD_LIB/src/hk32f0xx_gpio.c ****   * @brief  Clears the selected data port bits.
 368:hk_lib/HK32F030/STD_LIB/src/hk32f0xx_gpio.c ****   * @param  GPIOx: where x can be (A, B, C, D, E or F) to select the GPIO peripheral.
 369:hk_lib/HK32F030/STD_LIB/src/hk32f0xx_gpio.c ****   * @note   GPIOE is available only for HK32F072.
 370:hk_lib/HK32F030/STD_LIB/src/hk32f0xx_gpio.c ****   * @note   GPIOD is not available for HK32F031.
 371:hk_lib/HK32F030/STD_LIB/src/hk32f0xx_gpio.c ****   * @param  GPIO_Pin: specifies the port bits to be written.
 372:hk_lib/HK32F030/STD_LIB/src/hk32f0xx_gpio.c ****   * @note   This parameter can be GPIO_Pin_x where x can be:
 373:hk_lib/HK32F030/STD_LIB/src/hk32f0xx_gpio.c ****   *         For HK32F051 and HK32F030: (0..15) for GPIOA, GPIOB, GPIOC, (2) for GPIOD and (0..1, 4.
 374:hk_lib/HK32F030/STD_LIB/src/hk32f0xx_gpio.c ****   *         For HK32F072: (0..15) for GPIOA, GPIOB, GPIOC, GPIOD, GPIOE, (0..10) for GPIOF.
 375:hk_lib/HK32F030/STD_LIB/src/hk32f0xx_gpio.c ****   *         For HK32F031: (0..15) for GPIOA, GPIOB, (13..15) for GPIOC and (0..1, 6..7) for GPIOF. 
 376:hk_lib/HK32F030/STD_LIB/src/hk32f0xx_gpio.c ****   * @retval None
 377:hk_lib/HK32F030/STD_LIB/src/hk32f0xx_gpio.c ****   */
 378:hk_lib/HK32F030/STD_LIB/src/hk32f0xx_gpio.c **** void GPIO_ResetBits(GPIO_TypeDef* GPIOx, uint16_t GPIO_Pin)
 379:hk_lib/HK32F030/STD_LIB/src/hk32f0xx_gpio.c **** {
 651              		.loc 1 379 1 is_stmt 1 view -0
 652              		.cfi_startproc
 653              		@ args = 0, pretend = 0, frame = 0
 654              		@ frame_needed = 0, uses_anonymous_args = 0
 655              		@ link register save eliminated.
 380:hk_lib/HK32F030/STD_LIB/src/hk32f0xx_gpio.c ****   /* Check the parameters */
 381:hk_lib/HK32F030/STD_LIB/src/hk32f0xx_gpio.c ****   assert_param(IS_GPIO_ALL_PERIPH(GPIOx));
 656              		.loc 1 381 3 view .LVU182
 382:hk_lib/HK32F030/STD_LIB/src/hk32f0xx_gpio.c ****   assert_param(IS_GPIO_PIN(GPIO_Pin));
 657              		.loc 1 382 3 view .LVU183
 383:hk_lib/HK32F030/STD_LIB/src/hk32f0xx_gpio.c **** 
 384:hk_lib/HK32F030/STD_LIB/src/hk32f0xx_gpio.c ****   GPIOx->BRR = GPIO_Pin;
ARM GAS  /var/folders/ww/rl_brt8s5pq2m4_0c4ltm8d00000gn/T//cc6AYTBl.s 			page 20


 658              		.loc 1 384 3 view .LVU184
 659              		.loc 1 384 14 is_stmt 0 view .LVU185
 660 0000 0185     		strh	r1, [r0, #40]
 385:hk_lib/HK32F030/STD_LIB/src/hk32f0xx_gpio.c **** }
 661              		.loc 1 385 1 view .LVU186
 662              		@ sp needed
 663 0002 7047     		bx	lr
 664              		.cfi_endproc
 665              	.LFE42:
 667              		.section	.text.GPIO_WriteBit,"ax",%progbits
 668              		.align	1
 669              		.global	GPIO_WriteBit
 670              		.syntax unified
 671              		.code	16
 672              		.thumb_func
 673              		.fpu softvfp
 675              	GPIO_WriteBit:
 676              	.LVL54:
 677              	.LFB43:
 386:hk_lib/HK32F030/STD_LIB/src/hk32f0xx_gpio.c **** 
 387:hk_lib/HK32F030/STD_LIB/src/hk32f0xx_gpio.c **** /**
 388:hk_lib/HK32F030/STD_LIB/src/hk32f0xx_gpio.c ****   * @brief  Sets or clears the selected data port bit.
 389:hk_lib/HK32F030/STD_LIB/src/hk32f0xx_gpio.c ****   * @param  GPIOx: where x can be (A, B, C, D, E or F) to select the GPIO peripheral.
 390:hk_lib/HK32F030/STD_LIB/src/hk32f0xx_gpio.c ****   * @note   GPIOE is available only for HK32F072.
 391:hk_lib/HK32F030/STD_LIB/src/hk32f0xx_gpio.c ****   * @note   GPIOD is not available for HK32F031.  
 392:hk_lib/HK32F030/STD_LIB/src/hk32f0xx_gpio.c ****   * @param  GPIO_Pin: specifies the port bit to be written.
 393:hk_lib/HK32F030/STD_LIB/src/hk32f0xx_gpio.c ****   * @param  BitVal: specifies the value to be written to the selected bit.
 394:hk_lib/HK32F030/STD_LIB/src/hk32f0xx_gpio.c ****   *          This parameter can be one of the BitAction enumeration values:
 395:hk_lib/HK32F030/STD_LIB/src/hk32f0xx_gpio.c ****   *            @arg Bit_RESET: to clear the port pin
 396:hk_lib/HK32F030/STD_LIB/src/hk32f0xx_gpio.c ****   *            @arg Bit_SET: to set the port pin
 397:hk_lib/HK32F030/STD_LIB/src/hk32f0xx_gpio.c ****   * @note   This parameter can be GPIO_Pin_x where x can be:
 398:hk_lib/HK32F030/STD_LIB/src/hk32f0xx_gpio.c ****   *         For HK32F051 and HK32F030: (0..15) for GPIOA, GPIOB, GPIOC, (2) for GPIOD and (0..1, 4.
 399:hk_lib/HK32F030/STD_LIB/src/hk32f0xx_gpio.c ****   *         For HK32F072: (0..15) for GPIOA, GPIOB, GPIOC, GPIOD, GPIOE, (0..10) for GPIOF.
 400:hk_lib/HK32F030/STD_LIB/src/hk32f0xx_gpio.c ****   *         For HK32F031: (0..15) for GPIOA, GPIOB, (13..15) for GPIOC and (0..1, 6..7) for GPIOF.
 401:hk_lib/HK32F030/STD_LIB/src/hk32f0xx_gpio.c ****   * @retval None
 402:hk_lib/HK32F030/STD_LIB/src/hk32f0xx_gpio.c ****   */
 403:hk_lib/HK32F030/STD_LIB/src/hk32f0xx_gpio.c **** void GPIO_WriteBit(GPIO_TypeDef* GPIOx, uint16_t GPIO_Pin, BitAction BitVal)
 404:hk_lib/HK32F030/STD_LIB/src/hk32f0xx_gpio.c **** {
 678              		.loc 1 404 1 is_stmt 1 view -0
 679              		.cfi_startproc
 680              		@ args = 0, pretend = 0, frame = 0
 681              		@ frame_needed = 0, uses_anonymous_args = 0
 682              		@ link register save eliminated.
 405:hk_lib/HK32F030/STD_LIB/src/hk32f0xx_gpio.c ****   /* Check the parameters */
 406:hk_lib/HK32F030/STD_LIB/src/hk32f0xx_gpio.c ****   assert_param(IS_GPIO_ALL_PERIPH(GPIOx));
 683              		.loc 1 406 3 view .LVU188
 407:hk_lib/HK32F030/STD_LIB/src/hk32f0xx_gpio.c ****   assert_param(IS_GET_GPIO_PIN(GPIO_Pin));
 684              		.loc 1 407 3 view .LVU189
 408:hk_lib/HK32F030/STD_LIB/src/hk32f0xx_gpio.c ****   assert_param(IS_GPIO_BIT_ACTION(BitVal));
 685              		.loc 1 408 3 view .LVU190
 409:hk_lib/HK32F030/STD_LIB/src/hk32f0xx_gpio.c **** 
 410:hk_lib/HK32F030/STD_LIB/src/hk32f0xx_gpio.c ****   if (BitVal != Bit_RESET)
 686              		.loc 1 410 3 view .LVU191
 687              		.loc 1 410 6 is_stmt 0 view .LVU192
 688 0000 002A     		cmp	r2, #0
 689 0002 01D0     		beq	.L37
 411:hk_lib/HK32F030/STD_LIB/src/hk32f0xx_gpio.c ****   {
ARM GAS  /var/folders/ww/rl_brt8s5pq2m4_0c4ltm8d00000gn/T//cc6AYTBl.s 			page 21


 412:hk_lib/HK32F030/STD_LIB/src/hk32f0xx_gpio.c ****     GPIOx->BSRR = GPIO_Pin;
 690              		.loc 1 412 5 is_stmt 1 view .LVU193
 691              		.loc 1 412 17 is_stmt 0 view .LVU194
 692 0004 8161     		str	r1, [r0, #24]
 693              	.L36:
 413:hk_lib/HK32F030/STD_LIB/src/hk32f0xx_gpio.c ****   }
 414:hk_lib/HK32F030/STD_LIB/src/hk32f0xx_gpio.c ****   else
 415:hk_lib/HK32F030/STD_LIB/src/hk32f0xx_gpio.c ****   {
 416:hk_lib/HK32F030/STD_LIB/src/hk32f0xx_gpio.c ****     GPIOx->BRR = GPIO_Pin ;
 417:hk_lib/HK32F030/STD_LIB/src/hk32f0xx_gpio.c ****   }
 418:hk_lib/HK32F030/STD_LIB/src/hk32f0xx_gpio.c **** }
 694              		.loc 1 418 1 view .LVU195
 695              		@ sp needed
 696 0006 7047     		bx	lr
 697              	.L37:
 416:hk_lib/HK32F030/STD_LIB/src/hk32f0xx_gpio.c ****   }
 698              		.loc 1 416 5 is_stmt 1 view .LVU196
 416:hk_lib/HK32F030/STD_LIB/src/hk32f0xx_gpio.c ****   }
 699              		.loc 1 416 16 is_stmt 0 view .LVU197
 700 0008 0185     		strh	r1, [r0, #40]
 701              		.loc 1 418 1 view .LVU198
 702 000a FCE7     		b	.L36
 703              		.cfi_endproc
 704              	.LFE43:
 706              		.section	.text.GPIO_Write,"ax",%progbits
 707              		.align	1
 708              		.global	GPIO_Write
 709              		.syntax unified
 710              		.code	16
 711              		.thumb_func
 712              		.fpu softvfp
 714              	GPIO_Write:
 715              	.LVL55:
 716              	.LFB44:
 419:hk_lib/HK32F030/STD_LIB/src/hk32f0xx_gpio.c **** 
 420:hk_lib/HK32F030/STD_LIB/src/hk32f0xx_gpio.c **** /**
 421:hk_lib/HK32F030/STD_LIB/src/hk32f0xx_gpio.c ****   * @brief  Writes data to the specified GPIO data port.
 422:hk_lib/HK32F030/STD_LIB/src/hk32f0xx_gpio.c ****   * @param  GPIOx: where x can be (A, B, C, D, E or F) to select the GPIO peripheral.
 423:hk_lib/HK32F030/STD_LIB/src/hk32f0xx_gpio.c ****   * @note   GPIOE is available only for HK32F072.
 424:hk_lib/HK32F030/STD_LIB/src/hk32f0xx_gpio.c ****   * @note   GPIOD is not available for HK32F031.  
 425:hk_lib/HK32F030/STD_LIB/src/hk32f0xx_gpio.c ****   * @param  PortVal: specifies the value to be written to the port output data register.
 426:hk_lib/HK32F030/STD_LIB/src/hk32f0xx_gpio.c ****   * @retval None
 427:hk_lib/HK32F030/STD_LIB/src/hk32f0xx_gpio.c ****   */
 428:hk_lib/HK32F030/STD_LIB/src/hk32f0xx_gpio.c **** void GPIO_Write(GPIO_TypeDef* GPIOx, uint16_t PortVal)
 429:hk_lib/HK32F030/STD_LIB/src/hk32f0xx_gpio.c **** {
 717              		.loc 1 429 1 is_stmt 1 view -0
 718              		.cfi_startproc
 719              		@ args = 0, pretend = 0, frame = 0
 720              		@ frame_needed = 0, uses_anonymous_args = 0
 721              		@ link register save eliminated.
 430:hk_lib/HK32F030/STD_LIB/src/hk32f0xx_gpio.c ****   /* Check the parameters */
 431:hk_lib/HK32F030/STD_LIB/src/hk32f0xx_gpio.c ****   assert_param(IS_GPIO_ALL_PERIPH(GPIOx));
 722              		.loc 1 431 3 view .LVU200
 432:hk_lib/HK32F030/STD_LIB/src/hk32f0xx_gpio.c **** 
 433:hk_lib/HK32F030/STD_LIB/src/hk32f0xx_gpio.c ****   GPIOx->ODR = PortVal;
 723              		.loc 1 433 3 view .LVU201
 724              		.loc 1 433 14 is_stmt 0 view .LVU202
ARM GAS  /var/folders/ww/rl_brt8s5pq2m4_0c4ltm8d00000gn/T//cc6AYTBl.s 			page 22


 725 0000 8182     		strh	r1, [r0, #20]
 434:hk_lib/HK32F030/STD_LIB/src/hk32f0xx_gpio.c **** }
 726              		.loc 1 434 1 view .LVU203
 727              		@ sp needed
 728 0002 7047     		bx	lr
 729              		.cfi_endproc
 730              	.LFE44:
 732              		.section	.text.GPIO_PinAFConfig,"ax",%progbits
 733              		.align	1
 734              		.global	GPIO_PinAFConfig
 735              		.syntax unified
 736              		.code	16
 737              		.thumb_func
 738              		.fpu softvfp
 740              	GPIO_PinAFConfig:
 741              	.LVL56:
 742              	.LFB45:
 435:hk_lib/HK32F030/STD_LIB/src/hk32f0xx_gpio.c **** 
 436:hk_lib/HK32F030/STD_LIB/src/hk32f0xx_gpio.c **** /**
 437:hk_lib/HK32F030/STD_LIB/src/hk32f0xx_gpio.c ****   * @}
 438:hk_lib/HK32F030/STD_LIB/src/hk32f0xx_gpio.c ****   */
 439:hk_lib/HK32F030/STD_LIB/src/hk32f0xx_gpio.c **** 
 440:hk_lib/HK32F030/STD_LIB/src/hk32f0xx_gpio.c **** /** @defgroup GPIO_Group3 GPIO Alternate functions configuration functions
 441:hk_lib/HK32F030/STD_LIB/src/hk32f0xx_gpio.c ****  *  @brief   GPIO Alternate functions configuration functions
 442:hk_lib/HK32F030/STD_LIB/src/hk32f0xx_gpio.c ****  *
 443:hk_lib/HK32F030/STD_LIB/src/hk32f0xx_gpio.c **** @verbatim   
 444:hk_lib/HK32F030/STD_LIB/src/hk32f0xx_gpio.c ****  ===============================================================================
 445:hk_lib/HK32F030/STD_LIB/src/hk32f0xx_gpio.c ****           ##### GPIO Alternate functions configuration functions #####
 446:hk_lib/HK32F030/STD_LIB/src/hk32f0xx_gpio.c ****  ===============================================================================  
 447:hk_lib/HK32F030/STD_LIB/src/hk32f0xx_gpio.c **** 
 448:hk_lib/HK32F030/STD_LIB/src/hk32f0xx_gpio.c **** @endverbatim
 449:hk_lib/HK32F030/STD_LIB/src/hk32f0xx_gpio.c ****   * @{
 450:hk_lib/HK32F030/STD_LIB/src/hk32f0xx_gpio.c ****   */
 451:hk_lib/HK32F030/STD_LIB/src/hk32f0xx_gpio.c **** 
 452:hk_lib/HK32F030/STD_LIB/src/hk32f0xx_gpio.c **** /**
 453:hk_lib/HK32F030/STD_LIB/src/hk32f0xx_gpio.c ****   * @brief  Writes data to the specified GPIO data port.
 454:hk_lib/HK32F030/STD_LIB/src/hk32f0xx_gpio.c ****   * @param  GPIOx: where x can be (A, B, C, D, E or F) to select the GPIO peripheral.
 455:hk_lib/HK32F030/STD_LIB/src/hk32f0xx_gpio.c ****   * @note   GPIOC, GPIOD, GPIOE and GPIOF  are available only for HK32F072 and HK32F091. 
 456:hk_lib/HK32F030/STD_LIB/src/hk32f0xx_gpio.c ****   * @param  GPIO_PinSource: specifies the pin for the Alternate function.
 457:hk_lib/HK32F030/STD_LIB/src/hk32f0xx_gpio.c ****   *          This parameter can be GPIO_PinSourcex where x can be (0..15) for GPIOA, GPIOB, GPIOD, 
 458:hk_lib/HK32F030/STD_LIB/src/hk32f0xx_gpio.c ****   *          and (0..12) for GPIOC and (0, 2..5, 9..10) for GPIOF.    
 459:hk_lib/HK32F030/STD_LIB/src/hk32f0xx_gpio.c ****   * @param  GPIO_AF: selects the pin to used as Alternate function.
 460:hk_lib/HK32F030/STD_LIB/src/hk32f0xx_gpio.c ****   *          This parameter can be one of the following value:
 461:hk_lib/HK32F030/STD_LIB/src/hk32f0xx_gpio.c ****   *            @arg GPIO_AF_0:  WKUP, EVENTOUT, TIM15, SPI1, TIM17, MCO, SWDAT, SWCLK,
 462:hk_lib/HK32F030/STD_LIB/src/hk32f0xx_gpio.c ****   *                             TIM14, BOOT, USART1, CEC, IR_OUT, SPI2, TIM3, USART4,
 463:hk_lib/HK32F030/STD_LIB/src/hk32f0xx_gpio.c ****   *                             CAN, USART2, CRS, TIM16, TIM1, TS, USART8 
 464:hk_lib/HK32F030/STD_LIB/src/hk32f0xx_gpio.c ****   *            @arg GPIO_AF_1: USART2, CEC, TIM3, USART1, USART2, EVENTOUT, I2C1,
 465:hk_lib/HK32F030/STD_LIB/src/hk32f0xx_gpio.c ****   *                            I2C2, TIM15, SPI2, USART3, TS, SPI1, USART7, USART8
 466:hk_lib/HK32F030/STD_LIB/src/hk32f0xx_gpio.c ****   *                            USART5, USART4, USART6, I2C1   
 467:hk_lib/HK32F030/STD_LIB/src/hk32f0xx_gpio.c ****   *            @arg GPIO_AF_2: TIM2, TIM1, EVENTOUT, TIM16, TIM17, USB, USART6, USART5,
 468:hk_lib/HK32F030/STD_LIB/src/hk32f0xx_gpio.c ****   *                            USART8, USART7, USART6  
 469:hk_lib/HK32F030/STD_LIB/src/hk32f0xx_gpio.c ****   *            @arg GPIO_AF_3: TS, I2C1, TIM15, EVENTOUT 
 470:hk_lib/HK32F030/STD_LIB/src/hk32f0xx_gpio.c ****   *            @arg GPIO_AF_4: TIM14, USART4, USART3, CRS, CAN, I2C1, USART5
 471:hk_lib/HK32F030/STD_LIB/src/hk32f0xx_gpio.c ****   *            @arg GPIO_AF_5: TIM16, TIM17, TIM15, SPI2, I2C2, USART6, MCO
 472:hk_lib/HK32F030/STD_LIB/src/hk32f0xx_gpio.c ****   *            @arg GPIO_AF_6: EVENTOUT
 473:hk_lib/HK32F030/STD_LIB/src/hk32f0xx_gpio.c ****   *            @arg GPIO_AF_7: COMP1 OUT, COMP2 OUT 
 474:hk_lib/HK32F030/STD_LIB/src/hk32f0xx_gpio.c ****   * @note   The pin should already been configured in Alternate Function mode(AF)
ARM GAS  /var/folders/ww/rl_brt8s5pq2m4_0c4ltm8d00000gn/T//cc6AYTBl.s 			page 23


 475:hk_lib/HK32F030/STD_LIB/src/hk32f0xx_gpio.c ****   *         using GPIO_InitStruct->GPIO_Mode = GPIO_Mode_AF
 476:hk_lib/HK32F030/STD_LIB/src/hk32f0xx_gpio.c ****   * @note   Refer to the Alternate function mapping table in the device datasheet 
 477:hk_lib/HK32F030/STD_LIB/src/hk32f0xx_gpio.c ****   *         for the detailed mapping of the system and peripherals'alternate 
 478:hk_lib/HK32F030/STD_LIB/src/hk32f0xx_gpio.c ****   *         function I/O pins.
 479:hk_lib/HK32F030/STD_LIB/src/hk32f0xx_gpio.c ****   * @retval None
 480:hk_lib/HK32F030/STD_LIB/src/hk32f0xx_gpio.c ****   */
 481:hk_lib/HK32F030/STD_LIB/src/hk32f0xx_gpio.c **** void GPIO_PinAFConfig(GPIO_TypeDef* GPIOx, uint16_t GPIO_PinSource, uint8_t GPIO_AF)
 482:hk_lib/HK32F030/STD_LIB/src/hk32f0xx_gpio.c **** {
 743              		.loc 1 482 1 is_stmt 1 view -0
 744              		.cfi_startproc
 745              		@ args = 0, pretend = 0, frame = 0
 746              		@ frame_needed = 0, uses_anonymous_args = 0
 747              		.loc 1 482 1 is_stmt 0 view .LVU205
 748 0000 30B5     		push	{r4, r5, lr}
 749              	.LCFI3:
 750              		.cfi_def_cfa_offset 12
 751              		.cfi_offset 4, -12
 752              		.cfi_offset 5, -8
 753              		.cfi_offset 14, -4
 483:hk_lib/HK32F030/STD_LIB/src/hk32f0xx_gpio.c ****   uint32_t temp = 0x00;
 754              		.loc 1 483 3 is_stmt 1 view .LVU206
 755              	.LVL57:
 484:hk_lib/HK32F030/STD_LIB/src/hk32f0xx_gpio.c ****   uint32_t temp_2 = 0x00;
 756              		.loc 1 484 3 view .LVU207
 485:hk_lib/HK32F030/STD_LIB/src/hk32f0xx_gpio.c **** 
 486:hk_lib/HK32F030/STD_LIB/src/hk32f0xx_gpio.c ****   /* Check the parameters */
 487:hk_lib/HK32F030/STD_LIB/src/hk32f0xx_gpio.c ****   assert_param(IS_GPIO_ALL_PERIPH(GPIOx));
 757              		.loc 1 487 3 view .LVU208
 488:hk_lib/HK32F030/STD_LIB/src/hk32f0xx_gpio.c ****   assert_param(IS_GPIO_PIN_SOURCE(GPIO_PinSource));
 758              		.loc 1 488 3 view .LVU209
 489:hk_lib/HK32F030/STD_LIB/src/hk32f0xx_gpio.c ****   assert_param(IS_GPIO_AF(GPIO_AF));
 759              		.loc 1 489 3 view .LVU210
 490:hk_lib/HK32F030/STD_LIB/src/hk32f0xx_gpio.c **** 
 491:hk_lib/HK32F030/STD_LIB/src/hk32f0xx_gpio.c ****   temp = ((uint32_t)(GPIO_AF) << ((uint32_t)((uint32_t)GPIO_PinSource & (uint32_t)0x07) * 4));
 760              		.loc 1 491 3 view .LVU211
 761              		.loc 1 491 35 is_stmt 0 view .LVU212
 762 0002 0723     		movs	r3, #7
 763 0004 0B40     		ands	r3, r1
 764              		.loc 1 491 89 view .LVU213
 765 0006 9B00     		lsls	r3, r3, #2
 766              		.loc 1 491 8 view .LVU214
 767 0008 9A40     		lsls	r2, r2, r3
 768              	.LVL58:
 769              		.loc 1 491 8 view .LVU215
 770 000a 1400     		movs	r4, r2
 771              	.LVL59:
 492:hk_lib/HK32F030/STD_LIB/src/hk32f0xx_gpio.c ****   GPIOx->AFR[GPIO_PinSource >> 0x03] &= ~((uint32_t)0xF << ((uint32_t)((uint32_t)GPIO_PinSource & (
 772              		.loc 1 492 3 is_stmt 1 view .LVU216
 773              		.loc 1 492 38 is_stmt 0 view .LVU217
 774 000c C908     		lsrs	r1, r1, #3
 775              	.LVL60:
 776              		.loc 1 492 38 view .LVU218
 777 000e 0831     		adds	r1, r1, #8
 778 0010 8900     		lsls	r1, r1, #2
 779 0012 0A58     		ldr	r2, [r1, r0]
 780              	.LVL61:
 781              		.loc 1 492 57 view .LVU219
ARM GAS  /var/folders/ww/rl_brt8s5pq2m4_0c4ltm8d00000gn/T//cc6AYTBl.s 			page 24


 782 0014 0F25     		movs	r5, #15
 783 0016 9D40     		lsls	r5, r5, r3
 784              		.loc 1 492 38 view .LVU220
 785 0018 AA43     		bics	r2, r5
 786 001a 0A50     		str	r2, [r1, r0]
 493:hk_lib/HK32F030/STD_LIB/src/hk32f0xx_gpio.c ****   temp_2 = GPIOx->AFR[GPIO_PinSource >> 0x03] | temp;
 787              		.loc 1 493 3 is_stmt 1 view .LVU221
 788              		.loc 1 493 22 is_stmt 0 view .LVU222
 789 001c 0A58     		ldr	r2, [r1, r0]
 790              		.loc 1 493 10 view .LVU223
 791 001e 2243     		orrs	r2, r4
 792              	.LVL62:
 494:hk_lib/HK32F030/STD_LIB/src/hk32f0xx_gpio.c ****   GPIOx->AFR[GPIO_PinSource >> 0x03] = temp_2;
 793              		.loc 1 494 3 is_stmt 1 view .LVU224
 794              		.loc 1 494 38 is_stmt 0 view .LVU225
 795 0020 0A50     		str	r2, [r1, r0]
 495:hk_lib/HK32F030/STD_LIB/src/hk32f0xx_gpio.c **** }
 796              		.loc 1 495 1 view .LVU226
 797              		@ sp needed
 798              	.LVL63:
 799              		.loc 1 495 1 view .LVU227
 800 0022 30BD     		pop	{r4, r5, pc}
 801              		.cfi_endproc
 802              	.LFE45:
 804              		.text
 805              	.Letext0:
 806              		.file 2 "/Users/chenxiaonian/tool/gcc-arm-none-eabi-10.3-2021.07-mac-10.14.6/gcc-arm-none-eabi-10.
 807              		.file 3 "/Users/chenxiaonian/tool/gcc-arm-none-eabi-10.3-2021.07-mac-10.14.6/gcc-arm-none-eabi-10.
 808              		.file 4 "hk_lib/HK32F030/CMSIS/CM0/DeviceSupport/hk32f0xx.h"
 809              		.file 5 "hk_lib/HK32F030/STD_LIB/inc/hk32f0xx_gpio.h"
 810              		.file 6 "hk_lib/HK32F030/STD_LIB/inc/hk32f0xx_rcc.h"
ARM GAS  /var/folders/ww/rl_brt8s5pq2m4_0c4ltm8d00000gn/T//cc6AYTBl.s 			page 25

