ARM GAS  /var/folders/ww/rl_brt8s5pq2m4_0c4ltm8d00000gn/T//ccs2HKKk.s 			page 1


   1              		.cpu cortex-m0
   2              		.eabi_attribute 20, 1
   3              		.eabi_attribute 21, 1
   4              		.eabi_attribute 23, 3
   5              		.eabi_attribute 24, 1
   6              		.eabi_attribute 25, 1
   7              		.eabi_attribute 26, 1
   8              		.eabi_attribute 30, 1
   9              		.eabi_attribute 34, 0
  10              		.eabi_attribute 18, 4
  11              		.file	"system_hk32f0xx.c"
  12              		.text
  13              	.Ltext0:
  14              		.cfi_sections	.debug_frame
  15              		.section	.text.SetSysClock,"ax",%progbits
  16              		.align	1
  17              		.arch armv6s-m
  18              		.syntax unified
  19              		.code	16
  20              		.thumb_func
  21              		.fpu softvfp
  23              	SetSysClock:
  24              	.LFB35:
  25              		.file 1 "hk_lib/HK32F030/CMSIS/CM0/DeviceSupport/system_hk32f0xx.c"
   1:hk_lib/HK32F030/CMSIS/CM0/DeviceSupport/system_hk32f0xx.c **** /**
   2:hk_lib/HK32F030/CMSIS/CM0/DeviceSupport/system_hk32f0xx.c ****   ******************************************************************************
   3:hk_lib/HK32F030/CMSIS/CM0/DeviceSupport/system_hk32f0xx.c ****   * @file    system_hk32f0xx.c
   4:hk_lib/HK32F030/CMSIS/CM0/DeviceSupport/system_hk32f0xx.c ****   * @author  MCD Application Team
   5:hk_lib/HK32F030/CMSIS/CM0/DeviceSupport/system_hk32f0xx.c ****   * @version V1.4.0
   6:hk_lib/HK32F030/CMSIS/CM0/DeviceSupport/system_hk32f0xx.c ****   * @date    24-July-2014
   7:hk_lib/HK32F030/CMSIS/CM0/DeviceSupport/system_hk32f0xx.c ****   * @brief   CMSIS Cortex-M0 Device Peripheral Access Layer System Source File.
   8:hk_lib/HK32F030/CMSIS/CM0/DeviceSupport/system_hk32f0xx.c ****   *          This file contains the system clock configuration for HK32F0xx devices,
   9:hk_lib/HK32F030/CMSIS/CM0/DeviceSupport/system_hk32f0xx.c ****   *          and is generated by the clock configuration tool  
  10:hk_lib/HK32F030/CMSIS/CM0/DeviceSupport/system_hk32f0xx.c ****   *          HK32F0xx_Clock_Configuration_V1.0.1.xls
  11:hk_lib/HK32F030/CMSIS/CM0/DeviceSupport/system_hk32f0xx.c ****   *
  12:hk_lib/HK32F030/CMSIS/CM0/DeviceSupport/system_hk32f0xx.c ****   * 1.  This file provides two functions and one global variable to be called from 
  13:hk_lib/HK32F030/CMSIS/CM0/DeviceSupport/system_hk32f0xx.c ****   *     user application:
  14:hk_lib/HK32F030/CMSIS/CM0/DeviceSupport/system_hk32f0xx.c ****   *      - SystemInit(): Setups the system clock (System clock source, PLL Multiplier
  15:hk_lib/HK32F030/CMSIS/CM0/DeviceSupport/system_hk32f0xx.c ****   *                      and Divider factors, AHB/APBx prescalers and Flash settings),
  16:hk_lib/HK32F030/CMSIS/CM0/DeviceSupport/system_hk32f0xx.c ****   *                      depending on the configuration made in the clock xls tool.
  17:hk_lib/HK32F030/CMSIS/CM0/DeviceSupport/system_hk32f0xx.c ****   *                      This function is called at startup just after reset and 
  18:hk_lib/HK32F030/CMSIS/CM0/DeviceSupport/system_hk32f0xx.c ****   *                      before branch to main program. This call is made inside
  19:hk_lib/HK32F030/CMSIS/CM0/DeviceSupport/system_hk32f0xx.c ****   *                      the "startup_hk32f0xx.s" file.
  20:hk_lib/HK32F030/CMSIS/CM0/DeviceSupport/system_hk32f0xx.c ****   *
  21:hk_lib/HK32F030/CMSIS/CM0/DeviceSupport/system_hk32f0xx.c ****   *      - SystemCoreClock variable: Contains the core clock (HCLK), it can be used
  22:hk_lib/HK32F030/CMSIS/CM0/DeviceSupport/system_hk32f0xx.c ****   *                                  by the user application to setup the SysTick 
  23:hk_lib/HK32F030/CMSIS/CM0/DeviceSupport/system_hk32f0xx.c ****   *                                  timer or configure other parameters.
  24:hk_lib/HK32F030/CMSIS/CM0/DeviceSupport/system_hk32f0xx.c ****   *
  25:hk_lib/HK32F030/CMSIS/CM0/DeviceSupport/system_hk32f0xx.c ****   *      - SystemCoreClockUpdate(): Updates the variable SystemCoreClock and must
  26:hk_lib/HK32F030/CMSIS/CM0/DeviceSupport/system_hk32f0xx.c ****   *                                 be called whenever the core clock is changed
  27:hk_lib/HK32F030/CMSIS/CM0/DeviceSupport/system_hk32f0xx.c ****   *                                 during program execution.
  28:hk_lib/HK32F030/CMSIS/CM0/DeviceSupport/system_hk32f0xx.c ****   *
  29:hk_lib/HK32F030/CMSIS/CM0/DeviceSupport/system_hk32f0xx.c ****   * 2. After each device reset the HSI (8 MHz Range) is used as system clock source.
  30:hk_lib/HK32F030/CMSIS/CM0/DeviceSupport/system_hk32f0xx.c ****   *    Then SystemInit() function is called, in "startup_hk32f0xx.s" file, to
  31:hk_lib/HK32F030/CMSIS/CM0/DeviceSupport/system_hk32f0xx.c ****   *    configure the system clock before to branch to main program.
  32:hk_lib/HK32F030/CMSIS/CM0/DeviceSupport/system_hk32f0xx.c ****   *
  33:hk_lib/HK32F030/CMSIS/CM0/DeviceSupport/system_hk32f0xx.c ****   * 3. If the system clock source selected by user fails to startup, the SystemInit()
ARM GAS  /var/folders/ww/rl_brt8s5pq2m4_0c4ltm8d00000gn/T//ccs2HKKk.s 			page 2


  34:hk_lib/HK32F030/CMSIS/CM0/DeviceSupport/system_hk32f0xx.c ****   *    function will do nothing and HSI still used as system clock source. User can 
  35:hk_lib/HK32F030/CMSIS/CM0/DeviceSupport/system_hk32f0xx.c ****   *    add some code to deal with this issue inside the SetSysClock() function.
  36:hk_lib/HK32F030/CMSIS/CM0/DeviceSupport/system_hk32f0xx.c ****   *
  37:hk_lib/HK32F030/CMSIS/CM0/DeviceSupport/system_hk32f0xx.c ****   * 4. The default value of HSE crystal is set to 8MHz, refer to "HSE_VALUE" define
  38:hk_lib/HK32F030/CMSIS/CM0/DeviceSupport/system_hk32f0xx.c ****   *    in "hk32f0xx.h" file. When HSE is used as system clock source, directly or
  39:hk_lib/HK32F030/CMSIS/CM0/DeviceSupport/system_hk32f0xx.c ****   *    through PLL, and you are using different crystal you have to adapt the HSE
  40:hk_lib/HK32F030/CMSIS/CM0/DeviceSupport/system_hk32f0xx.c ****   *    value to your own configuration.
  41:hk_lib/HK32F030/CMSIS/CM0/DeviceSupport/system_hk32f0xx.c ****   *
  42:hk_lib/HK32F030/CMSIS/CM0/DeviceSupport/system_hk32f0xx.c ****   * 5. This file configures the system clock as follows:
  43:hk_lib/HK32F030/CMSIS/CM0/DeviceSupport/system_hk32f0xx.c ****   *=============================================================================
  44:hk_lib/HK32F030/CMSIS/CM0/DeviceSupport/system_hk32f0xx.c ****   *=============================================================================
  45:hk_lib/HK32F030/CMSIS/CM0/DeviceSupport/system_hk32f0xx.c ****   *        System Clock source                    | PLL(HSE)
  46:hk_lib/HK32F030/CMSIS/CM0/DeviceSupport/system_hk32f0xx.c ****   *-----------------------------------------------------------------------------
  47:hk_lib/HK32F030/CMSIS/CM0/DeviceSupport/system_hk32f0xx.c ****   *        SYSCLK(Hz)                             | 48000000
  48:hk_lib/HK32F030/CMSIS/CM0/DeviceSupport/system_hk32f0xx.c ****   *-----------------------------------------------------------------------------
  49:hk_lib/HK32F030/CMSIS/CM0/DeviceSupport/system_hk32f0xx.c ****   *        HCLK(Hz)                               | 48000000
  50:hk_lib/HK32F030/CMSIS/CM0/DeviceSupport/system_hk32f0xx.c ****   *-----------------------------------------------------------------------------
  51:hk_lib/HK32F030/CMSIS/CM0/DeviceSupport/system_hk32f0xx.c ****   *        AHB Prescaler                          | 1
  52:hk_lib/HK32F030/CMSIS/CM0/DeviceSupport/system_hk32f0xx.c ****   *-----------------------------------------------------------------------------
  53:hk_lib/HK32F030/CMSIS/CM0/DeviceSupport/system_hk32f0xx.c ****   *        APB Prescaler                          | 1
  54:hk_lib/HK32F030/CMSIS/CM0/DeviceSupport/system_hk32f0xx.c ****   *-----------------------------------------------------------------------------
  55:hk_lib/HK32F030/CMSIS/CM0/DeviceSupport/system_hk32f0xx.c ****   *        HSE Frequency(Hz)                      | 8000000
  56:hk_lib/HK32F030/CMSIS/CM0/DeviceSupport/system_hk32f0xx.c ****   *----------------------------------------------------------------------------
  57:hk_lib/HK32F030/CMSIS/CM0/DeviceSupport/system_hk32f0xx.c ****   *        PLLMUL                                 | 6
  58:hk_lib/HK32F030/CMSIS/CM0/DeviceSupport/system_hk32f0xx.c ****   *-----------------------------------------------------------------------------
  59:hk_lib/HK32F030/CMSIS/CM0/DeviceSupport/system_hk32f0xx.c ****   *        PREDIV                                 | 1
  60:hk_lib/HK32F030/CMSIS/CM0/DeviceSupport/system_hk32f0xx.c ****   *-----------------------------------------------------------------------------
  61:hk_lib/HK32F030/CMSIS/CM0/DeviceSupport/system_hk32f0xx.c ****   *        Flash Latency(WS)                      | 1
  62:hk_lib/HK32F030/CMSIS/CM0/DeviceSupport/system_hk32f0xx.c ****   *-----------------------------------------------------------------------------
  63:hk_lib/HK32F030/CMSIS/CM0/DeviceSupport/system_hk32f0xx.c ****   *        Prefetch Buffer                        | ON
  64:hk_lib/HK32F030/CMSIS/CM0/DeviceSupport/system_hk32f0xx.c ****   *-----------------------------------------------------------------------------
  65:hk_lib/HK32F030/CMSIS/CM0/DeviceSupport/system_hk32f0xx.c ****   ****************************************************************************** 
  66:hk_lib/HK32F030/CMSIS/CM0/DeviceSupport/system_hk32f0xx.c ****   */
  67:hk_lib/HK32F030/CMSIS/CM0/DeviceSupport/system_hk32f0xx.c **** 
  68:hk_lib/HK32F030/CMSIS/CM0/DeviceSupport/system_hk32f0xx.c **** /** @addtogroup CMSIS
  69:hk_lib/HK32F030/CMSIS/CM0/DeviceSupport/system_hk32f0xx.c ****   * @{
  70:hk_lib/HK32F030/CMSIS/CM0/DeviceSupport/system_hk32f0xx.c ****   */
  71:hk_lib/HK32F030/CMSIS/CM0/DeviceSupport/system_hk32f0xx.c **** 
  72:hk_lib/HK32F030/CMSIS/CM0/DeviceSupport/system_hk32f0xx.c **** /** @addtogroup HK32f0xx_system
  73:hk_lib/HK32F030/CMSIS/CM0/DeviceSupport/system_hk32f0xx.c ****   * @{
  74:hk_lib/HK32F030/CMSIS/CM0/DeviceSupport/system_hk32f0xx.c ****   */  
  75:hk_lib/HK32F030/CMSIS/CM0/DeviceSupport/system_hk32f0xx.c ****   
  76:hk_lib/HK32F030/CMSIS/CM0/DeviceSupport/system_hk32f0xx.c **** /** @addtogroup HK32F0xx_System_Private_Includes
  77:hk_lib/HK32F030/CMSIS/CM0/DeviceSupport/system_hk32f0xx.c ****   * @{
  78:hk_lib/HK32F030/CMSIS/CM0/DeviceSupport/system_hk32f0xx.c ****   */
  79:hk_lib/HK32F030/CMSIS/CM0/DeviceSupport/system_hk32f0xx.c **** 
  80:hk_lib/HK32F030/CMSIS/CM0/DeviceSupport/system_hk32f0xx.c **** #include "hk32f0xx.h"
  81:hk_lib/HK32F030/CMSIS/CM0/DeviceSupport/system_hk32f0xx.c **** 
  82:hk_lib/HK32F030/CMSIS/CM0/DeviceSupport/system_hk32f0xx.c **** /**
  83:hk_lib/HK32F030/CMSIS/CM0/DeviceSupport/system_hk32f0xx.c ****   * @}
  84:hk_lib/HK32F030/CMSIS/CM0/DeviceSupport/system_hk32f0xx.c ****   */
  85:hk_lib/HK32F030/CMSIS/CM0/DeviceSupport/system_hk32f0xx.c **** 
  86:hk_lib/HK32F030/CMSIS/CM0/DeviceSupport/system_hk32f0xx.c **** /** @addtogroup HK32F0xx_System_Private_TypesDefinitions
  87:hk_lib/HK32F030/CMSIS/CM0/DeviceSupport/system_hk32f0xx.c ****   * @{
  88:hk_lib/HK32F030/CMSIS/CM0/DeviceSupport/system_hk32f0xx.c ****   */
  89:hk_lib/HK32F030/CMSIS/CM0/DeviceSupport/system_hk32f0xx.c **** 
  90:hk_lib/HK32F030/CMSIS/CM0/DeviceSupport/system_hk32f0xx.c **** /**
ARM GAS  /var/folders/ww/rl_brt8s5pq2m4_0c4ltm8d00000gn/T//ccs2HKKk.s 			page 3


  91:hk_lib/HK32F030/CMSIS/CM0/DeviceSupport/system_hk32f0xx.c ****   * @}
  92:hk_lib/HK32F030/CMSIS/CM0/DeviceSupport/system_hk32f0xx.c ****   */
  93:hk_lib/HK32F030/CMSIS/CM0/DeviceSupport/system_hk32f0xx.c **** 
  94:hk_lib/HK32F030/CMSIS/CM0/DeviceSupport/system_hk32f0xx.c **** /** @addtogroup HK32F0xx_System_Private_Defines
  95:hk_lib/HK32F030/CMSIS/CM0/DeviceSupport/system_hk32f0xx.c ****   * @{
  96:hk_lib/HK32F030/CMSIS/CM0/DeviceSupport/system_hk32f0xx.c ****   */
  97:hk_lib/HK32F030/CMSIS/CM0/DeviceSupport/system_hk32f0xx.c **** /**
  98:hk_lib/HK32F030/CMSIS/CM0/DeviceSupport/system_hk32f0xx.c ****   * @}
  99:hk_lib/HK32F030/CMSIS/CM0/DeviceSupport/system_hk32f0xx.c ****   */
 100:hk_lib/HK32F030/CMSIS/CM0/DeviceSupport/system_hk32f0xx.c **** 
 101:hk_lib/HK32F030/CMSIS/CM0/DeviceSupport/system_hk32f0xx.c **** /** @addtogroup HK32F0xx_System_Private_Macros
 102:hk_lib/HK32F030/CMSIS/CM0/DeviceSupport/system_hk32f0xx.c ****   * @{
 103:hk_lib/HK32F030/CMSIS/CM0/DeviceSupport/system_hk32f0xx.c ****   */
 104:hk_lib/HK32F030/CMSIS/CM0/DeviceSupport/system_hk32f0xx.c **** 
 105:hk_lib/HK32F030/CMSIS/CM0/DeviceSupport/system_hk32f0xx.c **** /**
 106:hk_lib/HK32F030/CMSIS/CM0/DeviceSupport/system_hk32f0xx.c ****   * @}
 107:hk_lib/HK32F030/CMSIS/CM0/DeviceSupport/system_hk32f0xx.c ****   */
 108:hk_lib/HK32F030/CMSIS/CM0/DeviceSupport/system_hk32f0xx.c **** 
 109:hk_lib/HK32F030/CMSIS/CM0/DeviceSupport/system_hk32f0xx.c **** /** @addtogroup HK32F0xx_System_Private_Variables
 110:hk_lib/HK32F030/CMSIS/CM0/DeviceSupport/system_hk32f0xx.c ****   * @{
 111:hk_lib/HK32F030/CMSIS/CM0/DeviceSupport/system_hk32f0xx.c ****   */
 112:hk_lib/HK32F030/CMSIS/CM0/DeviceSupport/system_hk32f0xx.c **** uint32_t SystemCoreClock    = 48000000;
 113:hk_lib/HK32F030/CMSIS/CM0/DeviceSupport/system_hk32f0xx.c **** __I uint8_t AHBPrescTable[16] = {0, 0, 0, 0, 0, 0, 0, 0, 1, 2, 3, 4, 6, 7, 8, 9};
 114:hk_lib/HK32F030/CMSIS/CM0/DeviceSupport/system_hk32f0xx.c **** 
 115:hk_lib/HK32F030/CMSIS/CM0/DeviceSupport/system_hk32f0xx.c **** /**
 116:hk_lib/HK32F030/CMSIS/CM0/DeviceSupport/system_hk32f0xx.c ****   * @}
 117:hk_lib/HK32F030/CMSIS/CM0/DeviceSupport/system_hk32f0xx.c ****   */
 118:hk_lib/HK32F030/CMSIS/CM0/DeviceSupport/system_hk32f0xx.c **** 
 119:hk_lib/HK32F030/CMSIS/CM0/DeviceSupport/system_hk32f0xx.c **** /** @addtogroup HK32F0xx_System_Private_FunctionPrototypes
 120:hk_lib/HK32F030/CMSIS/CM0/DeviceSupport/system_hk32f0xx.c ****   * @{
 121:hk_lib/HK32F030/CMSIS/CM0/DeviceSupport/system_hk32f0xx.c ****   */
 122:hk_lib/HK32F030/CMSIS/CM0/DeviceSupport/system_hk32f0xx.c **** 
 123:hk_lib/HK32F030/CMSIS/CM0/DeviceSupport/system_hk32f0xx.c **** static void SetSysClock(void);
 124:hk_lib/HK32F030/CMSIS/CM0/DeviceSupport/system_hk32f0xx.c **** 
 125:hk_lib/HK32F030/CMSIS/CM0/DeviceSupport/system_hk32f0xx.c **** /**
 126:hk_lib/HK32F030/CMSIS/CM0/DeviceSupport/system_hk32f0xx.c ****   * @}
 127:hk_lib/HK32F030/CMSIS/CM0/DeviceSupport/system_hk32f0xx.c ****   */
 128:hk_lib/HK32F030/CMSIS/CM0/DeviceSupport/system_hk32f0xx.c **** 
 129:hk_lib/HK32F030/CMSIS/CM0/DeviceSupport/system_hk32f0xx.c **** /** @addtogroup HK32F0xx_System_Private_Functions
 130:hk_lib/HK32F030/CMSIS/CM0/DeviceSupport/system_hk32f0xx.c ****   * @{
 131:hk_lib/HK32F030/CMSIS/CM0/DeviceSupport/system_hk32f0xx.c ****   */
 132:hk_lib/HK32F030/CMSIS/CM0/DeviceSupport/system_hk32f0xx.c **** 
 133:hk_lib/HK32F030/CMSIS/CM0/DeviceSupport/system_hk32f0xx.c **** /**
 134:hk_lib/HK32F030/CMSIS/CM0/DeviceSupport/system_hk32f0xx.c ****   * @brief  Setup the microcontroller system.
 135:hk_lib/HK32F030/CMSIS/CM0/DeviceSupport/system_hk32f0xx.c ****   *         Initialize the Embedded Flash Interface, the PLL and update the 
 136:hk_lib/HK32F030/CMSIS/CM0/DeviceSupport/system_hk32f0xx.c ****   *         SystemCoreClock variable.
 137:hk_lib/HK32F030/CMSIS/CM0/DeviceSupport/system_hk32f0xx.c ****   * @param  None
 138:hk_lib/HK32F030/CMSIS/CM0/DeviceSupport/system_hk32f0xx.c ****   * @retval None
 139:hk_lib/HK32F030/CMSIS/CM0/DeviceSupport/system_hk32f0xx.c ****   */
 140:hk_lib/HK32F030/CMSIS/CM0/DeviceSupport/system_hk32f0xx.c **** void SystemInit (void)
 141:hk_lib/HK32F030/CMSIS/CM0/DeviceSupport/system_hk32f0xx.c **** {    
 142:hk_lib/HK32F030/CMSIS/CM0/DeviceSupport/system_hk32f0xx.c ****   /* Set HSION bit */
 143:hk_lib/HK32F030/CMSIS/CM0/DeviceSupport/system_hk32f0xx.c ****   RCC->CR |= (uint32_t)0x00000001;
 144:hk_lib/HK32F030/CMSIS/CM0/DeviceSupport/system_hk32f0xx.c **** 
 145:hk_lib/HK32F030/CMSIS/CM0/DeviceSupport/system_hk32f0xx.c ****   /* Reset SW[1:0], HPRE[3:0], PPRE[2:0], ADCPRE and MCOSEL[2:0] bits */
 146:hk_lib/HK32F030/CMSIS/CM0/DeviceSupport/system_hk32f0xx.c ****   RCC->CFGR &= (uint32_t)0xF8FFB80C;
 147:hk_lib/HK32F030/CMSIS/CM0/DeviceSupport/system_hk32f0xx.c ****   
ARM GAS  /var/folders/ww/rl_brt8s5pq2m4_0c4ltm8d00000gn/T//ccs2HKKk.s 			page 4


 148:hk_lib/HK32F030/CMSIS/CM0/DeviceSupport/system_hk32f0xx.c ****   /* Reset HSEON, CSSON and PLLON bits */
 149:hk_lib/HK32F030/CMSIS/CM0/DeviceSupport/system_hk32f0xx.c ****   RCC->CR &= (uint32_t)0xFEF6FFFF;
 150:hk_lib/HK32F030/CMSIS/CM0/DeviceSupport/system_hk32f0xx.c **** 
 151:hk_lib/HK32F030/CMSIS/CM0/DeviceSupport/system_hk32f0xx.c ****   /* Reset HSEBYP bit */
 152:hk_lib/HK32F030/CMSIS/CM0/DeviceSupport/system_hk32f0xx.c ****   RCC->CR &= (uint32_t)0xFFFBFFFF;
 153:hk_lib/HK32F030/CMSIS/CM0/DeviceSupport/system_hk32f0xx.c **** 
 154:hk_lib/HK32F030/CMSIS/CM0/DeviceSupport/system_hk32f0xx.c ****   /* Reset PLLSRC, PLLXTPRE and PLLMUL[3:0] bits */
 155:hk_lib/HK32F030/CMSIS/CM0/DeviceSupport/system_hk32f0xx.c ****   RCC->CFGR &= (uint32_t)0xFFC0FFFF;
 156:hk_lib/HK32F030/CMSIS/CM0/DeviceSupport/system_hk32f0xx.c **** 
 157:hk_lib/HK32F030/CMSIS/CM0/DeviceSupport/system_hk32f0xx.c ****   /* Reset PREDIV1[3:0] bits */
 158:hk_lib/HK32F030/CMSIS/CM0/DeviceSupport/system_hk32f0xx.c ****   RCC->CFGR2 &= (uint32_t)0xFFFFFFF0;
 159:hk_lib/HK32F030/CMSIS/CM0/DeviceSupport/system_hk32f0xx.c **** 
 160:hk_lib/HK32F030/CMSIS/CM0/DeviceSupport/system_hk32f0xx.c ****   /* Reset USARTSW[1:0], I2CSW, CECSW and ADCSW bits */
 161:hk_lib/HK32F030/CMSIS/CM0/DeviceSupport/system_hk32f0xx.c ****   RCC->CFGR3 &= (uint32_t)0xFFFFFEAC;
 162:hk_lib/HK32F030/CMSIS/CM0/DeviceSupport/system_hk32f0xx.c **** 
 163:hk_lib/HK32F030/CMSIS/CM0/DeviceSupport/system_hk32f0xx.c ****   /* Reset HSI14 bit */
 164:hk_lib/HK32F030/CMSIS/CM0/DeviceSupport/system_hk32f0xx.c ****   RCC->CR2 &= (uint32_t)0xFFFFFFFE;
 165:hk_lib/HK32F030/CMSIS/CM0/DeviceSupport/system_hk32f0xx.c **** 
 166:hk_lib/HK32F030/CMSIS/CM0/DeviceSupport/system_hk32f0xx.c ****   /* Disable all interrupts */
 167:hk_lib/HK32F030/CMSIS/CM0/DeviceSupport/system_hk32f0xx.c ****   RCC->CIR = 0x00000000;
 168:hk_lib/HK32F030/CMSIS/CM0/DeviceSupport/system_hk32f0xx.c **** 
 169:hk_lib/HK32F030/CMSIS/CM0/DeviceSupport/system_hk32f0xx.c ****   /* Configure the System clock frequency, AHB/APBx prescalers and Flash settings */
 170:hk_lib/HK32F030/CMSIS/CM0/DeviceSupport/system_hk32f0xx.c ****   SetSysClock();
 171:hk_lib/HK32F030/CMSIS/CM0/DeviceSupport/system_hk32f0xx.c **** }
 172:hk_lib/HK32F030/CMSIS/CM0/DeviceSupport/system_hk32f0xx.c **** 
 173:hk_lib/HK32F030/CMSIS/CM0/DeviceSupport/system_hk32f0xx.c **** /**
 174:hk_lib/HK32F030/CMSIS/CM0/DeviceSupport/system_hk32f0xx.c ****   * @brief  Update SystemCoreClock according to Clock Register Values
 175:hk_lib/HK32F030/CMSIS/CM0/DeviceSupport/system_hk32f0xx.c ****   *         The SystemCoreClock variable contains the core clock (HCLK), it can
 176:hk_lib/HK32F030/CMSIS/CM0/DeviceSupport/system_hk32f0xx.c ****   *         be used by the user application to setup the SysTick timer or configure
 177:hk_lib/HK32F030/CMSIS/CM0/DeviceSupport/system_hk32f0xx.c ****   *         other parameters.
 178:hk_lib/HK32F030/CMSIS/CM0/DeviceSupport/system_hk32f0xx.c ****   *
 179:hk_lib/HK32F030/CMSIS/CM0/DeviceSupport/system_hk32f0xx.c ****   * @note   Each time the core clock (HCLK) changes, this function must be called
 180:hk_lib/HK32F030/CMSIS/CM0/DeviceSupport/system_hk32f0xx.c ****   *         to update SystemCoreClock variable value. Otherwise, any configuration
 181:hk_lib/HK32F030/CMSIS/CM0/DeviceSupport/system_hk32f0xx.c ****   *         based on this variable will be incorrect.         
 182:hk_lib/HK32F030/CMSIS/CM0/DeviceSupport/system_hk32f0xx.c ****   *
 183:hk_lib/HK32F030/CMSIS/CM0/DeviceSupport/system_hk32f0xx.c ****   * @note   - The system frequency computed by this function is not the real 
 184:hk_lib/HK32F030/CMSIS/CM0/DeviceSupport/system_hk32f0xx.c ****   *           frequency in the chip. It is calculated based on the predefined 
 185:hk_lib/HK32F030/CMSIS/CM0/DeviceSupport/system_hk32f0xx.c ****   *           constant and the selected clock source:
 186:hk_lib/HK32F030/CMSIS/CM0/DeviceSupport/system_hk32f0xx.c ****   *
 187:hk_lib/HK32F030/CMSIS/CM0/DeviceSupport/system_hk32f0xx.c ****   *           - If SYSCLK source is HSI, SystemCoreClock will contain the HSI_VALUE(*)
 188:hk_lib/HK32F030/CMSIS/CM0/DeviceSupport/system_hk32f0xx.c ****   *                                              
 189:hk_lib/HK32F030/CMSIS/CM0/DeviceSupport/system_hk32f0xx.c ****   *           - If SYSCLK source is HSE, SystemCoreClock will contain the HSE_VALUE(**)
 190:hk_lib/HK32F030/CMSIS/CM0/DeviceSupport/system_hk32f0xx.c ****   *                          
 191:hk_lib/HK32F030/CMSIS/CM0/DeviceSupport/system_hk32f0xx.c ****   *           - If SYSCLK source is PLL, SystemCoreClock will contain the HSE_VALUE(**)
 192:hk_lib/HK32F030/CMSIS/CM0/DeviceSupport/system_hk32f0xx.c ****   *             or HSI_VALUE(*) multiplied/divided by the PLL factors.
 193:hk_lib/HK32F030/CMSIS/CM0/DeviceSupport/system_hk32f0xx.c ****   *
 194:hk_lib/HK32F030/CMSIS/CM0/DeviceSupport/system_hk32f0xx.c ****   *         (*) HSI_VALUE is a constant defined in HK32f0xx.h file (default value
 195:hk_lib/HK32F030/CMSIS/CM0/DeviceSupport/system_hk32f0xx.c ****   *             8 MHz) but the real value may vary depending on the variations
 196:hk_lib/HK32F030/CMSIS/CM0/DeviceSupport/system_hk32f0xx.c ****   *             in voltage and temperature.
 197:hk_lib/HK32F030/CMSIS/CM0/DeviceSupport/system_hk32f0xx.c ****   *
 198:hk_lib/HK32F030/CMSIS/CM0/DeviceSupport/system_hk32f0xx.c ****   *         (**) HSE_VALUE is a constant defined in HK32f0xx.h file (default value
 199:hk_lib/HK32F030/CMSIS/CM0/DeviceSupport/system_hk32f0xx.c ****   *              8 MHz), user has to ensure that HSE_VALUE is same as the real
 200:hk_lib/HK32F030/CMSIS/CM0/DeviceSupport/system_hk32f0xx.c ****   *              frequency of the crystal used. Otherwise, this function may
 201:hk_lib/HK32F030/CMSIS/CM0/DeviceSupport/system_hk32f0xx.c ****   *              have wrong result.
 202:hk_lib/HK32F030/CMSIS/CM0/DeviceSupport/system_hk32f0xx.c ****   *
 203:hk_lib/HK32F030/CMSIS/CM0/DeviceSupport/system_hk32f0xx.c ****   *         - The result of this function could be not correct when using fractional
 204:hk_lib/HK32F030/CMSIS/CM0/DeviceSupport/system_hk32f0xx.c ****   *           value for HSE crystal.
ARM GAS  /var/folders/ww/rl_brt8s5pq2m4_0c4ltm8d00000gn/T//ccs2HKKk.s 			page 5


 205:hk_lib/HK32F030/CMSIS/CM0/DeviceSupport/system_hk32f0xx.c ****   * @param  None
 206:hk_lib/HK32F030/CMSIS/CM0/DeviceSupport/system_hk32f0xx.c ****   * @retval None
 207:hk_lib/HK32F030/CMSIS/CM0/DeviceSupport/system_hk32f0xx.c ****   */
 208:hk_lib/HK32F030/CMSIS/CM0/DeviceSupport/system_hk32f0xx.c **** void SystemCoreClockUpdate (void)
 209:hk_lib/HK32F030/CMSIS/CM0/DeviceSupport/system_hk32f0xx.c **** {
 210:hk_lib/HK32F030/CMSIS/CM0/DeviceSupport/system_hk32f0xx.c ****   uint32_t tmp = 0, pllmull = 0, pllsource = 0, prediv1factor = 0;
 211:hk_lib/HK32F030/CMSIS/CM0/DeviceSupport/system_hk32f0xx.c **** 
 212:hk_lib/HK32F030/CMSIS/CM0/DeviceSupport/system_hk32f0xx.c ****   /* Get SYSCLK source -------------------------------------------------------*/
 213:hk_lib/HK32F030/CMSIS/CM0/DeviceSupport/system_hk32f0xx.c ****   tmp = RCC->CFGR & RCC_CFGR_SWS;
 214:hk_lib/HK32F030/CMSIS/CM0/DeviceSupport/system_hk32f0xx.c ****   
 215:hk_lib/HK32F030/CMSIS/CM0/DeviceSupport/system_hk32f0xx.c ****   switch (tmp)
 216:hk_lib/HK32F030/CMSIS/CM0/DeviceSupport/system_hk32f0xx.c ****   {
 217:hk_lib/HK32F030/CMSIS/CM0/DeviceSupport/system_hk32f0xx.c ****     case 0x00:  /* HSI used as system clock */
 218:hk_lib/HK32F030/CMSIS/CM0/DeviceSupport/system_hk32f0xx.c ****       SystemCoreClock = HSI_VALUE;
 219:hk_lib/HK32F030/CMSIS/CM0/DeviceSupport/system_hk32f0xx.c ****       break;
 220:hk_lib/HK32F030/CMSIS/CM0/DeviceSupport/system_hk32f0xx.c ****     case 0x04:  /* HSE used as system clock */
 221:hk_lib/HK32F030/CMSIS/CM0/DeviceSupport/system_hk32f0xx.c ****       SystemCoreClock = HSE_VALUE;
 222:hk_lib/HK32F030/CMSIS/CM0/DeviceSupport/system_hk32f0xx.c ****       break;
 223:hk_lib/HK32F030/CMSIS/CM0/DeviceSupport/system_hk32f0xx.c ****     case 0x08:  /* PLL used as system clock */
 224:hk_lib/HK32F030/CMSIS/CM0/DeviceSupport/system_hk32f0xx.c ****       /* Get PLL clock source and multiplication factor ----------------------*/
 225:hk_lib/HK32F030/CMSIS/CM0/DeviceSupport/system_hk32f0xx.c ****       pllmull = RCC->CFGR & RCC_CFGR_PLLMULL;
 226:hk_lib/HK32F030/CMSIS/CM0/DeviceSupport/system_hk32f0xx.c ****       pllsource = RCC->CFGR & RCC_CFGR_PLLSRC;
 227:hk_lib/HK32F030/CMSIS/CM0/DeviceSupport/system_hk32f0xx.c ****       pllmull = ( pllmull >> 18) + 2;
 228:hk_lib/HK32F030/CMSIS/CM0/DeviceSupport/system_hk32f0xx.c ****       
 229:hk_lib/HK32F030/CMSIS/CM0/DeviceSupport/system_hk32f0xx.c ****       if (pllsource == 0x00)
 230:hk_lib/HK32F030/CMSIS/CM0/DeviceSupport/system_hk32f0xx.c ****       {
 231:hk_lib/HK32F030/CMSIS/CM0/DeviceSupport/system_hk32f0xx.c ****         /* HSI oscillator clock divided by 2 selected as PLL clock entry */
 232:hk_lib/HK32F030/CMSIS/CM0/DeviceSupport/system_hk32f0xx.c ****         SystemCoreClock = (HSI_VALUE >> 1) * pllmull;
 233:hk_lib/HK32F030/CMSIS/CM0/DeviceSupport/system_hk32f0xx.c ****       }
 234:hk_lib/HK32F030/CMSIS/CM0/DeviceSupport/system_hk32f0xx.c ****       else
 235:hk_lib/HK32F030/CMSIS/CM0/DeviceSupport/system_hk32f0xx.c ****       {
 236:hk_lib/HK32F030/CMSIS/CM0/DeviceSupport/system_hk32f0xx.c ****         prediv1factor = (RCC->CFGR2 & RCC_CFGR2_PREDIV1) + 1;
 237:hk_lib/HK32F030/CMSIS/CM0/DeviceSupport/system_hk32f0xx.c ****         /* HSE oscillator clock selected as PREDIV1 clock entry */
 238:hk_lib/HK32F030/CMSIS/CM0/DeviceSupport/system_hk32f0xx.c ****         SystemCoreClock = (HSE_VALUE / prediv1factor) * pllmull; 
 239:hk_lib/HK32F030/CMSIS/CM0/DeviceSupport/system_hk32f0xx.c ****       }      
 240:hk_lib/HK32F030/CMSIS/CM0/DeviceSupport/system_hk32f0xx.c ****       break;
 241:hk_lib/HK32F030/CMSIS/CM0/DeviceSupport/system_hk32f0xx.c ****     default: /* HSI used as system clock */
 242:hk_lib/HK32F030/CMSIS/CM0/DeviceSupport/system_hk32f0xx.c ****       SystemCoreClock = HSI_VALUE;
 243:hk_lib/HK32F030/CMSIS/CM0/DeviceSupport/system_hk32f0xx.c ****       break;
 244:hk_lib/HK32F030/CMSIS/CM0/DeviceSupport/system_hk32f0xx.c ****   }
 245:hk_lib/HK32F030/CMSIS/CM0/DeviceSupport/system_hk32f0xx.c ****   /* Compute HCLK clock frequency ----------------*/
 246:hk_lib/HK32F030/CMSIS/CM0/DeviceSupport/system_hk32f0xx.c ****   /* Get HCLK prescaler */
 247:hk_lib/HK32F030/CMSIS/CM0/DeviceSupport/system_hk32f0xx.c ****   tmp = AHBPrescTable[((RCC->CFGR & RCC_CFGR_HPRE) >> 4)];
 248:hk_lib/HK32F030/CMSIS/CM0/DeviceSupport/system_hk32f0xx.c ****   /* HCLK clock frequency */
 249:hk_lib/HK32F030/CMSIS/CM0/DeviceSupport/system_hk32f0xx.c ****   SystemCoreClock >>= tmp;  
 250:hk_lib/HK32F030/CMSIS/CM0/DeviceSupport/system_hk32f0xx.c **** }
 251:hk_lib/HK32F030/CMSIS/CM0/DeviceSupport/system_hk32f0xx.c **** 
 252:hk_lib/HK32F030/CMSIS/CM0/DeviceSupport/system_hk32f0xx.c **** /**
 253:hk_lib/HK32F030/CMSIS/CM0/DeviceSupport/system_hk32f0xx.c ****   * @brief  Configures the System clock frequency, AHB/APBx prescalers and Flash
 254:hk_lib/HK32F030/CMSIS/CM0/DeviceSupport/system_hk32f0xx.c ****   *         settings.
 255:hk_lib/HK32F030/CMSIS/CM0/DeviceSupport/system_hk32f0xx.c ****   * @note   This function should be called only once the RCC clock configuration
 256:hk_lib/HK32F030/CMSIS/CM0/DeviceSupport/system_hk32f0xx.c ****   *         is reset to the default reset state (done in SystemInit() function).
 257:hk_lib/HK32F030/CMSIS/CM0/DeviceSupport/system_hk32f0xx.c ****   * @param  None
 258:hk_lib/HK32F030/CMSIS/CM0/DeviceSupport/system_hk32f0xx.c ****   * @retval None
 259:hk_lib/HK32F030/CMSIS/CM0/DeviceSupport/system_hk32f0xx.c ****   */
 260:hk_lib/HK32F030/CMSIS/CM0/DeviceSupport/system_hk32f0xx.c **** static void SetSysClock(void)
 261:hk_lib/HK32F030/CMSIS/CM0/DeviceSupport/system_hk32f0xx.c **** {
ARM GAS  /var/folders/ww/rl_brt8s5pq2m4_0c4ltm8d00000gn/T//ccs2HKKk.s 			page 6


  26              		.loc 1 261 1 view -0
  27              		.cfi_startproc
  28              		@ args = 0, pretend = 0, frame = 8
  29              		@ frame_needed = 0, uses_anonymous_args = 0
  30              		@ link register save eliminated.
  31 0000 82B0     		sub	sp, sp, #8
  32              	.LCFI0:
  33              		.cfi_def_cfa_offset 8
 262:hk_lib/HK32F030/CMSIS/CM0/DeviceSupport/system_hk32f0xx.c ****   __IO uint32_t StartUpCounter = 0, HSEStatus = 0;
  34              		.loc 1 262 3 view .LVU1
  35              		.loc 1 262 17 is_stmt 0 view .LVU2
  36 0002 0023     		movs	r3, #0
  37 0004 0193     		str	r3, [sp, #4]
  38              		.loc 1 262 37 view .LVU3
  39 0006 0093     		str	r3, [sp]
 263:hk_lib/HK32F030/CMSIS/CM0/DeviceSupport/system_hk32f0xx.c **** 
 264:hk_lib/HK32F030/CMSIS/CM0/DeviceSupport/system_hk32f0xx.c **** /******************************************************************************/
 265:hk_lib/HK32F030/CMSIS/CM0/DeviceSupport/system_hk32f0xx.c **** /*            PLL (clocked by HSE) used as System clock source                */
 266:hk_lib/HK32F030/CMSIS/CM0/DeviceSupport/system_hk32f0xx.c **** /******************************************************************************/
 267:hk_lib/HK32F030/CMSIS/CM0/DeviceSupport/system_hk32f0xx.c ****   
 268:hk_lib/HK32F030/CMSIS/CM0/DeviceSupport/system_hk32f0xx.c ****   /* SYSCLK, HCLK, PCLK configuration ----------------------------------------*/
 269:hk_lib/HK32F030/CMSIS/CM0/DeviceSupport/system_hk32f0xx.c ****   /* Enable HSE */    
 270:hk_lib/HK32F030/CMSIS/CM0/DeviceSupport/system_hk32f0xx.c ****   RCC->CR |= ((uint32_t)RCC_CR_HSEON);
  40              		.loc 1 270 3 is_stmt 1 view .LVU4
  41              		.loc 1 270 11 is_stmt 0 view .LVU5
  42 0008 274A     		ldr	r2, .L10
  43 000a 1168     		ldr	r1, [r2]
  44 000c 8023     		movs	r3, #128
  45 000e 5B02     		lsls	r3, r3, #9
  46 0010 0B43     		orrs	r3, r1
  47 0012 1360     		str	r3, [r2]
  48              	.L3:
 271:hk_lib/HK32F030/CMSIS/CM0/DeviceSupport/system_hk32f0xx.c ****  
 272:hk_lib/HK32F030/CMSIS/CM0/DeviceSupport/system_hk32f0xx.c ****   /* Wait till HSE is ready and if Time out is reached exit */
 273:hk_lib/HK32F030/CMSIS/CM0/DeviceSupport/system_hk32f0xx.c ****   do
  49              		.loc 1 273 3 is_stmt 1 discriminator 2 view .LVU6
 274:hk_lib/HK32F030/CMSIS/CM0/DeviceSupport/system_hk32f0xx.c ****   {
 275:hk_lib/HK32F030/CMSIS/CM0/DeviceSupport/system_hk32f0xx.c ****     HSEStatus = RCC->CR & RCC_CR_HSERDY;
  50              		.loc 1 275 5 discriminator 2 view .LVU7
  51              		.loc 1 275 20 is_stmt 0 discriminator 2 view .LVU8
  52 0014 244B     		ldr	r3, .L10
  53 0016 1B68     		ldr	r3, [r3]
  54              		.loc 1 275 25 discriminator 2 view .LVU9
  55 0018 8022     		movs	r2, #128
  56 001a 9202     		lsls	r2, r2, #10
  57 001c 1340     		ands	r3, r2
  58              		.loc 1 275 15 discriminator 2 view .LVU10
  59 001e 0093     		str	r3, [sp]
 276:hk_lib/HK32F030/CMSIS/CM0/DeviceSupport/system_hk32f0xx.c ****     StartUpCounter++;  
  60              		.loc 1 276 5 is_stmt 1 discriminator 2 view .LVU11
  61              		.loc 1 276 19 is_stmt 0 discriminator 2 view .LVU12
  62 0020 019B     		ldr	r3, [sp, #4]
  63 0022 0133     		adds	r3, r3, #1
  64 0024 0193     		str	r3, [sp, #4]
 277:hk_lib/HK32F030/CMSIS/CM0/DeviceSupport/system_hk32f0xx.c ****   } while((HSEStatus == 0) && (StartUpCounter != HSE_STARTUP_TIMEOUT));
  65              		.loc 1 277 10 is_stmt 1 discriminator 2 view .LVU13
  66              		.loc 1 277 22 is_stmt 0 discriminator 2 view .LVU14
ARM GAS  /var/folders/ww/rl_brt8s5pq2m4_0c4ltm8d00000gn/T//ccs2HKKk.s 			page 7


  67 0026 009B     		ldr	r3, [sp]
  68              		.loc 1 277 3 discriminator 2 view .LVU15
  69 0028 002B     		cmp	r3, #0
  70 002a 04D1     		bne	.L2
  71              		.loc 1 277 47 discriminator 1 view .LVU16
  72 002c 019A     		ldr	r2, [sp, #4]
  73              		.loc 1 277 28 discriminator 1 view .LVU17
  74 002e A023     		movs	r3, #160
  75 0030 DB01     		lsls	r3, r3, #7
  76 0032 9A42     		cmp	r2, r3
  77 0034 EED1     		bne	.L3
  78              	.L2:
 278:hk_lib/HK32F030/CMSIS/CM0/DeviceSupport/system_hk32f0xx.c **** 
 279:hk_lib/HK32F030/CMSIS/CM0/DeviceSupport/system_hk32f0xx.c ****   if ((RCC->CR & RCC_CR_HSERDY) != RESET)
  79              		.loc 1 279 3 is_stmt 1 view .LVU18
  80              		.loc 1 279 11 is_stmt 0 view .LVU19
  81 0036 1C4B     		ldr	r3, .L10
  82 0038 1B68     		ldr	r3, [r3]
  83              		.loc 1 279 6 view .LVU20
  84 003a 9B03     		lsls	r3, r3, #14
  85 003c 06D5     		bpl	.L4
 280:hk_lib/HK32F030/CMSIS/CM0/DeviceSupport/system_hk32f0xx.c ****   {
 281:hk_lib/HK32F030/CMSIS/CM0/DeviceSupport/system_hk32f0xx.c ****     HSEStatus = (uint32_t)0x01;
  86              		.loc 1 281 5 is_stmt 1 view .LVU21
  87              		.loc 1 281 15 is_stmt 0 view .LVU22
  88 003e 0123     		movs	r3, #1
  89 0040 0093     		str	r3, [sp]
  90              	.L5:
 282:hk_lib/HK32F030/CMSIS/CM0/DeviceSupport/system_hk32f0xx.c ****   }
 283:hk_lib/HK32F030/CMSIS/CM0/DeviceSupport/system_hk32f0xx.c ****   else
 284:hk_lib/HK32F030/CMSIS/CM0/DeviceSupport/system_hk32f0xx.c ****   {
 285:hk_lib/HK32F030/CMSIS/CM0/DeviceSupport/system_hk32f0xx.c ****     HSEStatus = (uint32_t)0x00;
 286:hk_lib/HK32F030/CMSIS/CM0/DeviceSupport/system_hk32f0xx.c ****   }  
 287:hk_lib/HK32F030/CMSIS/CM0/DeviceSupport/system_hk32f0xx.c **** 
 288:hk_lib/HK32F030/CMSIS/CM0/DeviceSupport/system_hk32f0xx.c ****   if (HSEStatus == (uint32_t)0x01)
  91              		.loc 1 288 3 is_stmt 1 view .LVU23
  92              		.loc 1 288 17 is_stmt 0 view .LVU24
  93 0042 009B     		ldr	r3, [sp]
  94              		.loc 1 288 6 view .LVU25
  95 0044 012B     		cmp	r3, #1
  96 0046 04D0     		beq	.L9
  97              	.L1:
 289:hk_lib/HK32F030/CMSIS/CM0/DeviceSupport/system_hk32f0xx.c ****   {
 290:hk_lib/HK32F030/CMSIS/CM0/DeviceSupport/system_hk32f0xx.c ****     /* Enable Prefetch Buffer and set Flash Latency */
 291:hk_lib/HK32F030/CMSIS/CM0/DeviceSupport/system_hk32f0xx.c ****     FLASH->ACR = FLASH_ACR_PRFTBE | FLASH_ACR_LATENCY;
 292:hk_lib/HK32F030/CMSIS/CM0/DeviceSupport/system_hk32f0xx.c ****  
 293:hk_lib/HK32F030/CMSIS/CM0/DeviceSupport/system_hk32f0xx.c ****     /* HCLK = SYSCLK */
 294:hk_lib/HK32F030/CMSIS/CM0/DeviceSupport/system_hk32f0xx.c ****     RCC->CFGR |= (uint32_t)RCC_CFGR_HPRE_DIV1;
 295:hk_lib/HK32F030/CMSIS/CM0/DeviceSupport/system_hk32f0xx.c ****       
 296:hk_lib/HK32F030/CMSIS/CM0/DeviceSupport/system_hk32f0xx.c ****     /* PCLK = HCLK */
 297:hk_lib/HK32F030/CMSIS/CM0/DeviceSupport/system_hk32f0xx.c ****     RCC->CFGR |= (uint32_t)RCC_CFGR_PPRE_DIV1;
 298:hk_lib/HK32F030/CMSIS/CM0/DeviceSupport/system_hk32f0xx.c **** 
 299:hk_lib/HK32F030/CMSIS/CM0/DeviceSupport/system_hk32f0xx.c ****     /* PLL configuration */
 300:hk_lib/HK32F030/CMSIS/CM0/DeviceSupport/system_hk32f0xx.c ****     RCC->CFGR &= (uint32_t)((uint32_t)~(RCC_CFGR_PLLSRC | RCC_CFGR_PLLXTPRE | RCC_CFGR_PLLMULL));
 301:hk_lib/HK32F030/CMSIS/CM0/DeviceSupport/system_hk32f0xx.c ****     RCC->CFGR |= (uint32_t)(RCC_CFGR_PLLSRC_PREDIV1 | RCC_CFGR_PLLXTPRE_PREDIV1 | RCC_CFGR_PLLMULL6
 302:hk_lib/HK32F030/CMSIS/CM0/DeviceSupport/system_hk32f0xx.c ****             
 303:hk_lib/HK32F030/CMSIS/CM0/DeviceSupport/system_hk32f0xx.c ****     /* Enable PLL */
ARM GAS  /var/folders/ww/rl_brt8s5pq2m4_0c4ltm8d00000gn/T//ccs2HKKk.s 			page 8


 304:hk_lib/HK32F030/CMSIS/CM0/DeviceSupport/system_hk32f0xx.c ****     RCC->CR |= RCC_CR_PLLON;
 305:hk_lib/HK32F030/CMSIS/CM0/DeviceSupport/system_hk32f0xx.c **** 
 306:hk_lib/HK32F030/CMSIS/CM0/DeviceSupport/system_hk32f0xx.c ****     /* Wait till PLL is ready */
 307:hk_lib/HK32F030/CMSIS/CM0/DeviceSupport/system_hk32f0xx.c ****     while((RCC->CR & RCC_CR_PLLRDY) == 0)
 308:hk_lib/HK32F030/CMSIS/CM0/DeviceSupport/system_hk32f0xx.c ****     {
 309:hk_lib/HK32F030/CMSIS/CM0/DeviceSupport/system_hk32f0xx.c ****     }
 310:hk_lib/HK32F030/CMSIS/CM0/DeviceSupport/system_hk32f0xx.c **** 
 311:hk_lib/HK32F030/CMSIS/CM0/DeviceSupport/system_hk32f0xx.c ****     /* Select PLL as system clock source */
 312:hk_lib/HK32F030/CMSIS/CM0/DeviceSupport/system_hk32f0xx.c ****     RCC->CFGR &= (uint32_t)((uint32_t)~(RCC_CFGR_SW));
 313:hk_lib/HK32F030/CMSIS/CM0/DeviceSupport/system_hk32f0xx.c ****     RCC->CFGR |= (uint32_t)RCC_CFGR_SW_PLL;    
 314:hk_lib/HK32F030/CMSIS/CM0/DeviceSupport/system_hk32f0xx.c **** 
 315:hk_lib/HK32F030/CMSIS/CM0/DeviceSupport/system_hk32f0xx.c ****     /* Wait till PLL is used as system clock source */
 316:hk_lib/HK32F030/CMSIS/CM0/DeviceSupport/system_hk32f0xx.c ****     while ((RCC->CFGR & (uint32_t)RCC_CFGR_SWS) != (uint32_t)RCC_CFGR_SWS_PLL)
 317:hk_lib/HK32F030/CMSIS/CM0/DeviceSupport/system_hk32f0xx.c ****     {
 318:hk_lib/HK32F030/CMSIS/CM0/DeviceSupport/system_hk32f0xx.c ****     }
 319:hk_lib/HK32F030/CMSIS/CM0/DeviceSupport/system_hk32f0xx.c ****   }
 320:hk_lib/HK32F030/CMSIS/CM0/DeviceSupport/system_hk32f0xx.c ****   else
 321:hk_lib/HK32F030/CMSIS/CM0/DeviceSupport/system_hk32f0xx.c ****   { /* If HSE fails to start-up, the application will have wrong clock 
 322:hk_lib/HK32F030/CMSIS/CM0/DeviceSupport/system_hk32f0xx.c ****          configuration. User can add here some code to deal with this error */
 323:hk_lib/HK32F030/CMSIS/CM0/DeviceSupport/system_hk32f0xx.c ****   }  
 324:hk_lib/HK32F030/CMSIS/CM0/DeviceSupport/system_hk32f0xx.c **** }
  98              		.loc 1 324 1 view .LVU26
  99 0048 02B0     		add	sp, sp, #8
 100              		@ sp needed
 101 004a 7047     		bx	lr
 102              	.L4:
 285:hk_lib/HK32F030/CMSIS/CM0/DeviceSupport/system_hk32f0xx.c ****   }  
 103              		.loc 1 285 5 is_stmt 1 view .LVU27
 285:hk_lib/HK32F030/CMSIS/CM0/DeviceSupport/system_hk32f0xx.c ****   }  
 104              		.loc 1 285 15 is_stmt 0 view .LVU28
 105 004c 0023     		movs	r3, #0
 106 004e 0093     		str	r3, [sp]
 107 0050 F7E7     		b	.L5
 108              	.L9:
 291:hk_lib/HK32F030/CMSIS/CM0/DeviceSupport/system_hk32f0xx.c ****  
 109              		.loc 1 291 5 is_stmt 1 view .LVU29
 291:hk_lib/HK32F030/CMSIS/CM0/DeviceSupport/system_hk32f0xx.c ****  
 110              		.loc 1 291 16 is_stmt 0 view .LVU30
 111 0052 164B     		ldr	r3, .L10+4
 112 0054 1122     		movs	r2, #17
 113 0056 1A60     		str	r2, [r3]
 294:hk_lib/HK32F030/CMSIS/CM0/DeviceSupport/system_hk32f0xx.c ****       
 114              		.loc 1 294 5 is_stmt 1 view .LVU31
 294:hk_lib/HK32F030/CMSIS/CM0/DeviceSupport/system_hk32f0xx.c ****       
 115              		.loc 1 294 15 is_stmt 0 view .LVU32
 116 0058 134B     		ldr	r3, .L10
 117 005a 5A68     		ldr	r2, [r3, #4]
 118 005c 5A60     		str	r2, [r3, #4]
 297:hk_lib/HK32F030/CMSIS/CM0/DeviceSupport/system_hk32f0xx.c **** 
 119              		.loc 1 297 5 is_stmt 1 view .LVU33
 297:hk_lib/HK32F030/CMSIS/CM0/DeviceSupport/system_hk32f0xx.c **** 
 120              		.loc 1 297 15 is_stmt 0 view .LVU34
 121 005e 5A68     		ldr	r2, [r3, #4]
 122 0060 5A60     		str	r2, [r3, #4]
 300:hk_lib/HK32F030/CMSIS/CM0/DeviceSupport/system_hk32f0xx.c ****     RCC->CFGR |= (uint32_t)(RCC_CFGR_PLLSRC_PREDIV1 | RCC_CFGR_PLLXTPRE_PREDIV1 | RCC_CFGR_PLLMULL6
 123              		.loc 1 300 5 is_stmt 1 view .LVU35
 300:hk_lib/HK32F030/CMSIS/CM0/DeviceSupport/system_hk32f0xx.c ****     RCC->CFGR |= (uint32_t)(RCC_CFGR_PLLSRC_PREDIV1 | RCC_CFGR_PLLXTPRE_PREDIV1 | RCC_CFGR_PLLMULL6
ARM GAS  /var/folders/ww/rl_brt8s5pq2m4_0c4ltm8d00000gn/T//ccs2HKKk.s 			page 9


 124              		.loc 1 300 15 is_stmt 0 view .LVU36
 125 0062 5A68     		ldr	r2, [r3, #4]
 126 0064 1249     		ldr	r1, .L10+8
 127 0066 0A40     		ands	r2, r1
 128 0068 5A60     		str	r2, [r3, #4]
 301:hk_lib/HK32F030/CMSIS/CM0/DeviceSupport/system_hk32f0xx.c ****             
 129              		.loc 1 301 5 is_stmt 1 view .LVU37
 301:hk_lib/HK32F030/CMSIS/CM0/DeviceSupport/system_hk32f0xx.c ****             
 130              		.loc 1 301 15 is_stmt 0 view .LVU38
 131 006a 5968     		ldr	r1, [r3, #4]
 132 006c 8822     		movs	r2, #136
 133 006e 5203     		lsls	r2, r2, #13
 134 0070 0A43     		orrs	r2, r1
 135 0072 5A60     		str	r2, [r3, #4]
 304:hk_lib/HK32F030/CMSIS/CM0/DeviceSupport/system_hk32f0xx.c **** 
 136              		.loc 1 304 5 is_stmt 1 view .LVU39
 304:hk_lib/HK32F030/CMSIS/CM0/DeviceSupport/system_hk32f0xx.c **** 
 137              		.loc 1 304 13 is_stmt 0 view .LVU40
 138 0074 1968     		ldr	r1, [r3]
 139 0076 8022     		movs	r2, #128
 140 0078 5204     		lsls	r2, r2, #17
 141 007a 0A43     		orrs	r2, r1
 142 007c 1A60     		str	r2, [r3]
 307:hk_lib/HK32F030/CMSIS/CM0/DeviceSupport/system_hk32f0xx.c ****     {
 143              		.loc 1 307 5 is_stmt 1 view .LVU41
 144              	.L7:
 309:hk_lib/HK32F030/CMSIS/CM0/DeviceSupport/system_hk32f0xx.c **** 
 145              		.loc 1 309 5 discriminator 1 view .LVU42
 307:hk_lib/HK32F030/CMSIS/CM0/DeviceSupport/system_hk32f0xx.c ****     {
 146              		.loc 1 307 10 discriminator 1 view .LVU43
 307:hk_lib/HK32F030/CMSIS/CM0/DeviceSupport/system_hk32f0xx.c ****     {
 147              		.loc 1 307 15 is_stmt 0 discriminator 1 view .LVU44
 148 007e 0A4B     		ldr	r3, .L10
 149 0080 1B68     		ldr	r3, [r3]
 307:hk_lib/HK32F030/CMSIS/CM0/DeviceSupport/system_hk32f0xx.c ****     {
 150              		.loc 1 307 10 discriminator 1 view .LVU45
 151 0082 9B01     		lsls	r3, r3, #6
 152 0084 FBD5     		bpl	.L7
 312:hk_lib/HK32F030/CMSIS/CM0/DeviceSupport/system_hk32f0xx.c ****     RCC->CFGR |= (uint32_t)RCC_CFGR_SW_PLL;    
 153              		.loc 1 312 5 is_stmt 1 view .LVU46
 312:hk_lib/HK32F030/CMSIS/CM0/DeviceSupport/system_hk32f0xx.c ****     RCC->CFGR |= (uint32_t)RCC_CFGR_SW_PLL;    
 154              		.loc 1 312 15 is_stmt 0 view .LVU47
 155 0086 084B     		ldr	r3, .L10
 156 0088 5A68     		ldr	r2, [r3, #4]
 157 008a 0321     		movs	r1, #3
 158 008c 8A43     		bics	r2, r1
 159 008e 5A60     		str	r2, [r3, #4]
 313:hk_lib/HK32F030/CMSIS/CM0/DeviceSupport/system_hk32f0xx.c **** 
 160              		.loc 1 313 5 is_stmt 1 view .LVU48
 313:hk_lib/HK32F030/CMSIS/CM0/DeviceSupport/system_hk32f0xx.c **** 
 161              		.loc 1 313 15 is_stmt 0 view .LVU49
 162 0090 5A68     		ldr	r2, [r3, #4]
 163 0092 0139     		subs	r1, r1, #1
 164 0094 0A43     		orrs	r2, r1
 165 0096 5A60     		str	r2, [r3, #4]
 316:hk_lib/HK32F030/CMSIS/CM0/DeviceSupport/system_hk32f0xx.c ****     {
 166              		.loc 1 316 5 is_stmt 1 view .LVU50
ARM GAS  /var/folders/ww/rl_brt8s5pq2m4_0c4ltm8d00000gn/T//ccs2HKKk.s 			page 10


 167              	.L8:
 318:hk_lib/HK32F030/CMSIS/CM0/DeviceSupport/system_hk32f0xx.c ****   }
 168              		.loc 1 318 5 discriminator 1 view .LVU51
 316:hk_lib/HK32F030/CMSIS/CM0/DeviceSupport/system_hk32f0xx.c ****     {
 169              		.loc 1 316 11 discriminator 1 view .LVU52
 316:hk_lib/HK32F030/CMSIS/CM0/DeviceSupport/system_hk32f0xx.c ****     {
 170              		.loc 1 316 16 is_stmt 0 discriminator 1 view .LVU53
 171 0098 034B     		ldr	r3, .L10
 172 009a 5A68     		ldr	r2, [r3, #4]
 316:hk_lib/HK32F030/CMSIS/CM0/DeviceSupport/system_hk32f0xx.c ****     {
 173              		.loc 1 316 23 discriminator 1 view .LVU54
 174 009c 0C23     		movs	r3, #12
 175 009e 1340     		ands	r3, r2
 316:hk_lib/HK32F030/CMSIS/CM0/DeviceSupport/system_hk32f0xx.c ****     {
 176              		.loc 1 316 11 discriminator 1 view .LVU55
 177 00a0 082B     		cmp	r3, #8
 178 00a2 F9D1     		bne	.L8
 179 00a4 D0E7     		b	.L1
 180              	.L11:
 181 00a6 C046     		.align	2
 182              	.L10:
 183 00a8 00100240 		.word	1073876992
 184 00ac 00200240 		.word	1073881088
 185 00b0 FF7FC0FF 		.word	-4161537
 186              		.cfi_endproc
 187              	.LFE35:
 189              		.section	.text.SystemInit,"ax",%progbits
 190              		.align	1
 191              		.global	SystemInit
 192              		.syntax unified
 193              		.code	16
 194              		.thumb_func
 195              		.fpu softvfp
 197              	SystemInit:
 198              	.LFB33:
 141:hk_lib/HK32F030/CMSIS/CM0/DeviceSupport/system_hk32f0xx.c ****   /* Set HSION bit */
 199              		.loc 1 141 1 is_stmt 1 view -0
 200              		.cfi_startproc
 201              		@ args = 0, pretend = 0, frame = 0
 202              		@ frame_needed = 0, uses_anonymous_args = 0
 203 0000 10B5     		push	{r4, lr}
 204              	.LCFI1:
 205              		.cfi_def_cfa_offset 8
 206              		.cfi_offset 4, -8
 207              		.cfi_offset 14, -4
 143:hk_lib/HK32F030/CMSIS/CM0/DeviceSupport/system_hk32f0xx.c **** 
 208              		.loc 1 143 3 view .LVU57
 143:hk_lib/HK32F030/CMSIS/CM0/DeviceSupport/system_hk32f0xx.c **** 
 209              		.loc 1 143 11 is_stmt 0 view .LVU58
 210 0002 124B     		ldr	r3, .L13
 211 0004 1A68     		ldr	r2, [r3]
 212 0006 0121     		movs	r1, #1
 213 0008 0A43     		orrs	r2, r1
 214 000a 1A60     		str	r2, [r3]
 146:hk_lib/HK32F030/CMSIS/CM0/DeviceSupport/system_hk32f0xx.c ****   
 215              		.loc 1 146 3 is_stmt 1 view .LVU59
 146:hk_lib/HK32F030/CMSIS/CM0/DeviceSupport/system_hk32f0xx.c ****   
ARM GAS  /var/folders/ww/rl_brt8s5pq2m4_0c4ltm8d00000gn/T//ccs2HKKk.s 			page 11


 216              		.loc 1 146 13 is_stmt 0 view .LVU60
 217 000c 5A68     		ldr	r2, [r3, #4]
 218 000e 1048     		ldr	r0, .L13+4
 219 0010 0240     		ands	r2, r0
 220 0012 5A60     		str	r2, [r3, #4]
 149:hk_lib/HK32F030/CMSIS/CM0/DeviceSupport/system_hk32f0xx.c **** 
 221              		.loc 1 149 3 is_stmt 1 view .LVU61
 149:hk_lib/HK32F030/CMSIS/CM0/DeviceSupport/system_hk32f0xx.c **** 
 222              		.loc 1 149 11 is_stmt 0 view .LVU62
 223 0014 1A68     		ldr	r2, [r3]
 224 0016 0F48     		ldr	r0, .L13+8
 225 0018 0240     		ands	r2, r0
 226 001a 1A60     		str	r2, [r3]
 152:hk_lib/HK32F030/CMSIS/CM0/DeviceSupport/system_hk32f0xx.c **** 
 227              		.loc 1 152 3 is_stmt 1 view .LVU63
 152:hk_lib/HK32F030/CMSIS/CM0/DeviceSupport/system_hk32f0xx.c **** 
 228              		.loc 1 152 11 is_stmt 0 view .LVU64
 229 001c 1A68     		ldr	r2, [r3]
 230 001e 0E48     		ldr	r0, .L13+12
 231 0020 0240     		ands	r2, r0
 232 0022 1A60     		str	r2, [r3]
 155:hk_lib/HK32F030/CMSIS/CM0/DeviceSupport/system_hk32f0xx.c **** 
 233              		.loc 1 155 3 is_stmt 1 view .LVU65
 155:hk_lib/HK32F030/CMSIS/CM0/DeviceSupport/system_hk32f0xx.c **** 
 234              		.loc 1 155 13 is_stmt 0 view .LVU66
 235 0024 5A68     		ldr	r2, [r3, #4]
 236 0026 0D48     		ldr	r0, .L13+16
 237 0028 0240     		ands	r2, r0
 238 002a 5A60     		str	r2, [r3, #4]
 158:hk_lib/HK32F030/CMSIS/CM0/DeviceSupport/system_hk32f0xx.c **** 
 239              		.loc 1 158 3 is_stmt 1 view .LVU67
 158:hk_lib/HK32F030/CMSIS/CM0/DeviceSupport/system_hk32f0xx.c **** 
 240              		.loc 1 158 14 is_stmt 0 view .LVU68
 241 002c DA6A     		ldr	r2, [r3, #44]
 242 002e 0F20     		movs	r0, #15
 243 0030 8243     		bics	r2, r0
 244 0032 DA62     		str	r2, [r3, #44]
 161:hk_lib/HK32F030/CMSIS/CM0/DeviceSupport/system_hk32f0xx.c **** 
 245              		.loc 1 161 3 is_stmt 1 view .LVU69
 161:hk_lib/HK32F030/CMSIS/CM0/DeviceSupport/system_hk32f0xx.c **** 
 246              		.loc 1 161 14 is_stmt 0 view .LVU70
 247 0034 1A6B     		ldr	r2, [r3, #48]
 248 0036 0A48     		ldr	r0, .L13+20
 249 0038 0240     		ands	r2, r0
 250 003a 1A63     		str	r2, [r3, #48]
 164:hk_lib/HK32F030/CMSIS/CM0/DeviceSupport/system_hk32f0xx.c **** 
 251              		.loc 1 164 3 is_stmt 1 view .LVU71
 164:hk_lib/HK32F030/CMSIS/CM0/DeviceSupport/system_hk32f0xx.c **** 
 252              		.loc 1 164 12 is_stmt 0 view .LVU72
 253 003c 5A6B     		ldr	r2, [r3, #52]
 254 003e 8A43     		bics	r2, r1
 255 0040 5A63     		str	r2, [r3, #52]
 167:hk_lib/HK32F030/CMSIS/CM0/DeviceSupport/system_hk32f0xx.c **** 
 256              		.loc 1 167 3 is_stmt 1 view .LVU73
 167:hk_lib/HK32F030/CMSIS/CM0/DeviceSupport/system_hk32f0xx.c **** 
 257              		.loc 1 167 12 is_stmt 0 view .LVU74
 258 0042 0022     		movs	r2, #0
ARM GAS  /var/folders/ww/rl_brt8s5pq2m4_0c4ltm8d00000gn/T//ccs2HKKk.s 			page 12


 259 0044 9A60     		str	r2, [r3, #8]
 170:hk_lib/HK32F030/CMSIS/CM0/DeviceSupport/system_hk32f0xx.c **** }
 260              		.loc 1 170 3 is_stmt 1 view .LVU75
 261 0046 FFF7FEFF 		bl	SetSysClock
 262              	.LVL0:
 171:hk_lib/HK32F030/CMSIS/CM0/DeviceSupport/system_hk32f0xx.c **** 
 263              		.loc 1 171 1 is_stmt 0 view .LVU76
 264              		@ sp needed
 265 004a 10BD     		pop	{r4, pc}
 266              	.L14:
 267              		.align	2
 268              	.L13:
 269 004c 00100240 		.word	1073876992
 270 0050 0CB8FFF8 		.word	-117458932
 271 0054 FFFFF6FE 		.word	-17367041
 272 0058 FFFFFBFF 		.word	-262145
 273 005c FFFFC0FF 		.word	-4128769
 274 0060 ACFEFFFF 		.word	-340
 275              		.cfi_endproc
 276              	.LFE33:
 278              		.global	__aeabi_uidiv
 279              		.section	.text.SystemCoreClockUpdate,"ax",%progbits
 280              		.align	1
 281              		.global	SystemCoreClockUpdate
 282              		.syntax unified
 283              		.code	16
 284              		.thumb_func
 285              		.fpu softvfp
 287              	SystemCoreClockUpdate:
 288              	.LFB34:
 209:hk_lib/HK32F030/CMSIS/CM0/DeviceSupport/system_hk32f0xx.c ****   uint32_t tmp = 0, pllmull = 0, pllsource = 0, prediv1factor = 0;
 289              		.loc 1 209 1 is_stmt 1 view -0
 290              		.cfi_startproc
 291              		@ args = 0, pretend = 0, frame = 0
 292              		@ frame_needed = 0, uses_anonymous_args = 0
 293 0000 10B5     		push	{r4, lr}
 294              	.LCFI2:
 295              		.cfi_def_cfa_offset 8
 296              		.cfi_offset 4, -8
 297              		.cfi_offset 14, -4
 210:hk_lib/HK32F030/CMSIS/CM0/DeviceSupport/system_hk32f0xx.c **** 
 298              		.loc 1 210 3 view .LVU78
 299              	.LVL1:
 213:hk_lib/HK32F030/CMSIS/CM0/DeviceSupport/system_hk32f0xx.c ****   
 300              		.loc 1 213 3 view .LVU79
 213:hk_lib/HK32F030/CMSIS/CM0/DeviceSupport/system_hk32f0xx.c ****   
 301              		.loc 1 213 12 is_stmt 0 view .LVU80
 302 0002 214B     		ldr	r3, .L22
 303 0004 5A68     		ldr	r2, [r3, #4]
 213:hk_lib/HK32F030/CMSIS/CM0/DeviceSupport/system_hk32f0xx.c ****   
 304              		.loc 1 213 7 view .LVU81
 305 0006 0C23     		movs	r3, #12
 306 0008 1340     		ands	r3, r2
 307              	.LVL2:
 215:hk_lib/HK32F030/CMSIS/CM0/DeviceSupport/system_hk32f0xx.c ****   {
 308              		.loc 1 215 3 is_stmt 1 view .LVU82
 309 000a 042B     		cmp	r3, #4
ARM GAS  /var/folders/ww/rl_brt8s5pq2m4_0c4ltm8d00000gn/T//ccs2HKKk.s 			page 13


 310 000c 17D0     		beq	.L16
 311 000e 082B     		cmp	r3, #8
 312 0010 19D0     		beq	.L17
 313 0012 002B     		cmp	r3, #0
 314 0014 03D0     		beq	.L21
 242:hk_lib/HK32F030/CMSIS/CM0/DeviceSupport/system_hk32f0xx.c ****       break;
 315              		.loc 1 242 7 view .LVU83
 242:hk_lib/HK32F030/CMSIS/CM0/DeviceSupport/system_hk32f0xx.c ****       break;
 316              		.loc 1 242 23 is_stmt 0 view .LVU84
 317 0016 1D4B     		ldr	r3, .L22+4
 318              	.LVL3:
 242:hk_lib/HK32F030/CMSIS/CM0/DeviceSupport/system_hk32f0xx.c ****       break;
 319              		.loc 1 242 23 view .LVU85
 320 0018 1D4A     		ldr	r2, .L22+8
 321              	.LVL4:
 242:hk_lib/HK32F030/CMSIS/CM0/DeviceSupport/system_hk32f0xx.c ****       break;
 322              		.loc 1 242 23 view .LVU86
 323 001a 1A60     		str	r2, [r3]
 243:hk_lib/HK32F030/CMSIS/CM0/DeviceSupport/system_hk32f0xx.c ****   }
 324              		.loc 1 243 7 is_stmt 1 view .LVU87
 325 001c 02E0     		b	.L19
 326              	.LVL5:
 327              	.L21:
 218:hk_lib/HK32F030/CMSIS/CM0/DeviceSupport/system_hk32f0xx.c ****       break;
 328              		.loc 1 218 7 view .LVU88
 218:hk_lib/HK32F030/CMSIS/CM0/DeviceSupport/system_hk32f0xx.c ****       break;
 329              		.loc 1 218 23 is_stmt 0 view .LVU89
 330 001e 1B4B     		ldr	r3, .L22+4
 331              	.LVL6:
 218:hk_lib/HK32F030/CMSIS/CM0/DeviceSupport/system_hk32f0xx.c ****       break;
 332              		.loc 1 218 23 view .LVU90
 333 0020 1B4A     		ldr	r2, .L22+8
 334              	.LVL7:
 218:hk_lib/HK32F030/CMSIS/CM0/DeviceSupport/system_hk32f0xx.c ****       break;
 335              		.loc 1 218 23 view .LVU91
 336 0022 1A60     		str	r2, [r3]
 219:hk_lib/HK32F030/CMSIS/CM0/DeviceSupport/system_hk32f0xx.c ****     case 0x04:  /* HSE used as system clock */
 337              		.loc 1 219 7 is_stmt 1 view .LVU92
 338              	.LVL8:
 339              	.L19:
 247:hk_lib/HK32F030/CMSIS/CM0/DeviceSupport/system_hk32f0xx.c ****   /* HCLK clock frequency */
 340              		.loc 1 247 3 view .LVU93
 247:hk_lib/HK32F030/CMSIS/CM0/DeviceSupport/system_hk32f0xx.c ****   /* HCLK clock frequency */
 341              		.loc 1 247 28 is_stmt 0 view .LVU94
 342 0024 184B     		ldr	r3, .L22
 343 0026 5A68     		ldr	r2, [r3, #4]
 247:hk_lib/HK32F030/CMSIS/CM0/DeviceSupport/system_hk32f0xx.c ****   /* HCLK clock frequency */
 344              		.loc 1 247 52 view .LVU95
 345 0028 1209     		lsrs	r2, r2, #4
 346 002a 0F23     		movs	r3, #15
 347 002c 1340     		ands	r3, r2
 247:hk_lib/HK32F030/CMSIS/CM0/DeviceSupport/system_hk32f0xx.c ****   /* HCLK clock frequency */
 348              		.loc 1 247 22 view .LVU96
 349 002e 194A     		ldr	r2, .L22+12
 350 0030 D35C     		ldrb	r3, [r2, r3]
 351 0032 DBB2     		uxtb	r3, r3
 352              	.LVL9:
ARM GAS  /var/folders/ww/rl_brt8s5pq2m4_0c4ltm8d00000gn/T//ccs2HKKk.s 			page 14


 249:hk_lib/HK32F030/CMSIS/CM0/DeviceSupport/system_hk32f0xx.c **** }
 353              		.loc 1 249 3 is_stmt 1 view .LVU97
 249:hk_lib/HK32F030/CMSIS/CM0/DeviceSupport/system_hk32f0xx.c **** }
 354              		.loc 1 249 19 is_stmt 0 view .LVU98
 355 0034 154A     		ldr	r2, .L22+4
 356 0036 1168     		ldr	r1, [r2]
 357 0038 D940     		lsrs	r1, r1, r3
 358 003a 1160     		str	r1, [r2]
 250:hk_lib/HK32F030/CMSIS/CM0/DeviceSupport/system_hk32f0xx.c **** 
 359              		.loc 1 250 1 view .LVU99
 360              		@ sp needed
 361 003c 10BD     		pop	{r4, pc}
 362              	.LVL10:
 363              	.L16:
 221:hk_lib/HK32F030/CMSIS/CM0/DeviceSupport/system_hk32f0xx.c ****       break;
 364              		.loc 1 221 7 is_stmt 1 view .LVU100
 221:hk_lib/HK32F030/CMSIS/CM0/DeviceSupport/system_hk32f0xx.c ****       break;
 365              		.loc 1 221 23 is_stmt 0 view .LVU101
 366 003e 134B     		ldr	r3, .L22+4
 367              	.LVL11:
 221:hk_lib/HK32F030/CMSIS/CM0/DeviceSupport/system_hk32f0xx.c ****       break;
 368              		.loc 1 221 23 view .LVU102
 369 0040 134A     		ldr	r2, .L22+8
 370              	.LVL12:
 221:hk_lib/HK32F030/CMSIS/CM0/DeviceSupport/system_hk32f0xx.c ****       break;
 371              		.loc 1 221 23 view .LVU103
 372 0042 1A60     		str	r2, [r3]
 222:hk_lib/HK32F030/CMSIS/CM0/DeviceSupport/system_hk32f0xx.c ****     case 0x08:  /* PLL used as system clock */
 373              		.loc 1 222 7 is_stmt 1 view .LVU104
 374 0044 EEE7     		b	.L19
 375              	.LVL13:
 376              	.L17:
 225:hk_lib/HK32F030/CMSIS/CM0/DeviceSupport/system_hk32f0xx.c ****       pllsource = RCC->CFGR & RCC_CFGR_PLLSRC;
 377              		.loc 1 225 7 view .LVU105
 225:hk_lib/HK32F030/CMSIS/CM0/DeviceSupport/system_hk32f0xx.c ****       pllsource = RCC->CFGR & RCC_CFGR_PLLSRC;
 378              		.loc 1 225 20 is_stmt 0 view .LVU106
 379 0046 104B     		ldr	r3, .L22
 380              	.LVL14:
 225:hk_lib/HK32F030/CMSIS/CM0/DeviceSupport/system_hk32f0xx.c ****       pllsource = RCC->CFGR & RCC_CFGR_PLLSRC;
 381              		.loc 1 225 20 view .LVU107
 382 0048 5C68     		ldr	r4, [r3, #4]
 383              	.LVL15:
 226:hk_lib/HK32F030/CMSIS/CM0/DeviceSupport/system_hk32f0xx.c ****       pllmull = ( pllmull >> 18) + 2;
 384              		.loc 1 226 7 is_stmt 1 view .LVU108
 226:hk_lib/HK32F030/CMSIS/CM0/DeviceSupport/system_hk32f0xx.c ****       pllmull = ( pllmull >> 18) + 2;
 385              		.loc 1 226 22 is_stmt 0 view .LVU109
 386 004a 5968     		ldr	r1, [r3, #4]
 226:hk_lib/HK32F030/CMSIS/CM0/DeviceSupport/system_hk32f0xx.c ****       pllmull = ( pllmull >> 18) + 2;
 387              		.loc 1 226 17 view .LVU110
 388 004c C022     		movs	r2, #192
 389              	.LVL16:
 226:hk_lib/HK32F030/CMSIS/CM0/DeviceSupport/system_hk32f0xx.c ****       pllmull = ( pllmull >> 18) + 2;
 390              		.loc 1 226 17 view .LVU111
 391 004e 5202     		lsls	r2, r2, #9
 392              	.LVL17:
 227:hk_lib/HK32F030/CMSIS/CM0/DeviceSupport/system_hk32f0xx.c ****       
 393              		.loc 1 227 7 is_stmt 1 view .LVU112
ARM GAS  /var/folders/ww/rl_brt8s5pq2m4_0c4ltm8d00000gn/T//ccs2HKKk.s 			page 15


 227:hk_lib/HK32F030/CMSIS/CM0/DeviceSupport/system_hk32f0xx.c ****       
 394              		.loc 1 227 27 is_stmt 0 view .LVU113
 395 0050 A30C     		lsrs	r3, r4, #18
 396 0052 0F24     		movs	r4, #15
 397              	.LVL18:
 227:hk_lib/HK32F030/CMSIS/CM0/DeviceSupport/system_hk32f0xx.c ****       
 398              		.loc 1 227 27 view .LVU114
 399 0054 1C40     		ands	r4, r3
 227:hk_lib/HK32F030/CMSIS/CM0/DeviceSupport/system_hk32f0xx.c ****       
 400              		.loc 1 227 15 view .LVU115
 401 0056 0234     		adds	r4, r4, #2
 402              	.LVL19:
 229:hk_lib/HK32F030/CMSIS/CM0/DeviceSupport/system_hk32f0xx.c ****       {
 403              		.loc 1 229 7 is_stmt 1 view .LVU116
 229:hk_lib/HK32F030/CMSIS/CM0/DeviceSupport/system_hk32f0xx.c ****       {
 404              		.loc 1 229 10 is_stmt 0 view .LVU117
 405 0058 1142     		tst	r1, r2
 406 005a 09D1     		bne	.L20
 232:hk_lib/HK32F030/CMSIS/CM0/DeviceSupport/system_hk32f0xx.c ****       }
 407              		.loc 1 232 9 is_stmt 1 view .LVU118
 232:hk_lib/HK32F030/CMSIS/CM0/DeviceSupport/system_hk32f0xx.c ****       }
 408              		.loc 1 232 44 is_stmt 0 view .LVU119
 409 005c 6201     		lsls	r2, r4, #5
 410              	.LVL20:
 232:hk_lib/HK32F030/CMSIS/CM0/DeviceSupport/system_hk32f0xx.c ****       }
 411              		.loc 1 232 44 view .LVU120
 412 005e 121B     		subs	r2, r2, r4
 413 0060 9301     		lsls	r3, r2, #6
 414 0062 9B1A     		subs	r3, r3, r2
 415 0064 DB00     		lsls	r3, r3, #3
 416 0066 1C19     		adds	r4, r3, r4
 417              	.LVL21:
 232:hk_lib/HK32F030/CMSIS/CM0/DeviceSupport/system_hk32f0xx.c ****       }
 418              		.loc 1 232 44 view .LVU121
 419 0068 2402     		lsls	r4, r4, #8
 232:hk_lib/HK32F030/CMSIS/CM0/DeviceSupport/system_hk32f0xx.c ****       }
 420              		.loc 1 232 25 view .LVU122
 421 006a 084B     		ldr	r3, .L22+4
 422 006c 1C60     		str	r4, [r3]
 423 006e D9E7     		b	.L19
 424              	.LVL22:
 425              	.L20:
 236:hk_lib/HK32F030/CMSIS/CM0/DeviceSupport/system_hk32f0xx.c ****         /* HSE oscillator clock selected as PREDIV1 clock entry */
 426              		.loc 1 236 9 is_stmt 1 view .LVU123
 236:hk_lib/HK32F030/CMSIS/CM0/DeviceSupport/system_hk32f0xx.c ****         /* HSE oscillator clock selected as PREDIV1 clock entry */
 427              		.loc 1 236 29 is_stmt 0 view .LVU124
 428 0070 054B     		ldr	r3, .L22
 429 0072 DB6A     		ldr	r3, [r3, #44]
 236:hk_lib/HK32F030/CMSIS/CM0/DeviceSupport/system_hk32f0xx.c ****         /* HSE oscillator clock selected as PREDIV1 clock entry */
 430              		.loc 1 236 37 view .LVU125
 431 0074 0F21     		movs	r1, #15
 432              	.LVL23:
 236:hk_lib/HK32F030/CMSIS/CM0/DeviceSupport/system_hk32f0xx.c ****         /* HSE oscillator clock selected as PREDIV1 clock entry */
 433              		.loc 1 236 37 view .LVU126
 434 0076 1940     		ands	r1, r3
 236:hk_lib/HK32F030/CMSIS/CM0/DeviceSupport/system_hk32f0xx.c ****         /* HSE oscillator clock selected as PREDIV1 clock entry */
 435              		.loc 1 236 23 view .LVU127
ARM GAS  /var/folders/ww/rl_brt8s5pq2m4_0c4ltm8d00000gn/T//ccs2HKKk.s 			page 16


 436 0078 0131     		adds	r1, r1, #1
 437              	.LVL24:
 238:hk_lib/HK32F030/CMSIS/CM0/DeviceSupport/system_hk32f0xx.c ****       }      
 438              		.loc 1 238 9 is_stmt 1 view .LVU128
 238:hk_lib/HK32F030/CMSIS/CM0/DeviceSupport/system_hk32f0xx.c ****       }      
 439              		.loc 1 238 38 is_stmt 0 view .LVU129
 440 007a 0548     		ldr	r0, .L22+8
 441 007c FFF7FEFF 		bl	__aeabi_uidiv
 442              	.LVL25:
 238:hk_lib/HK32F030/CMSIS/CM0/DeviceSupport/system_hk32f0xx.c ****       }      
 443              		.loc 1 238 55 view .LVU130
 444 0080 4443     		muls	r4, r0
 445              	.LVL26:
 238:hk_lib/HK32F030/CMSIS/CM0/DeviceSupport/system_hk32f0xx.c ****       }      
 446              		.loc 1 238 25 view .LVU131
 447 0082 024B     		ldr	r3, .L22+4
 448 0084 1C60     		str	r4, [r3]
 449 0086 CDE7     		b	.L19
 450              	.L23:
 451              		.align	2
 452              	.L22:
 453 0088 00100240 		.word	1073876992
 454 008c 00000000 		.word	.LANCHOR0
 455 0090 00127A00 		.word	8000000
 456 0094 00000000 		.word	.LANCHOR1
 457              		.cfi_endproc
 458              	.LFE34:
 460              		.global	AHBPrescTable
 461              		.global	SystemCoreClock
 462              		.section	.data.AHBPrescTable,"aw"
 463              		.align	2
 464              		.set	.LANCHOR1,. + 0
 467              	AHBPrescTable:
 468 0000 00000000 		.ascii	"\000\000\000\000\000\000\000\000\001\002\003\004\006"
 468      00000000 
 468      01020304 
 468      06
 469 000d 070809   		.ascii	"\007\010\011"
 470              		.section	.data.SystemCoreClock,"aw"
 471              		.align	2
 472              		.set	.LANCHOR0,. + 0
 475              	SystemCoreClock:
 476 0000 006CDC02 		.word	48000000
 477              		.text
 478              	.Letext0:
 479              		.file 2 "/Users/chenxiaonian/tool/gcc-arm-none-eabi-10.3-2021.07-mac-10.14.6/gcc-arm-none-eabi-10.
 480              		.file 3 "/Users/chenxiaonian/tool/gcc-arm-none-eabi-10.3-2021.07-mac-10.14.6/gcc-arm-none-eabi-10.
 481              		.file 4 "hk_lib/HK32F030/CMSIS/CM0/DeviceSupport/hk32f0xx.h"
 482              		.file 5 "hk_lib/HK32F030/CMSIS/CM0/DeviceSupport/system_HK32f0xx.h"
ARM GAS  /var/folders/ww/rl_brt8s5pq2m4_0c4ltm8d00000gn/T//ccs2HKKk.s 			page 17

